
RoboterModel (Template).elf:     file format elf32-littlearm

Sections:
Idx Name          Size      VMA       LMA       File off  Algn
  0 .isr_vector   00000188  08000000  08000000  00010000  2**0
                  CONTENTS, ALLOC, LOAD, READONLY, DATA
  1 .text         00004ebc  08000188  08000188  00010188  2**2
                  CONTENTS, ALLOC, LOAD, READONLY, CODE
  2 .init_array   00000004  08005044  08005044  00015044  2**2
                  CONTENTS, ALLOC, LOAD, DATA
  3 .fini_array   00000004  08005048  08005048  00015048  2**2
                  CONTENTS, ALLOC, LOAD, DATA
  4 .data         00000914  20000000  0800504c  00020000  2**2
                  CONTENTS, ALLOC, LOAD, DATA
  5 .ccmram       00000000  10000000  10000000  00020914  2**0
                  CONTENTS
  6 .bss          00012de4  20000914  20000914  00020914  2**2
                  ALLOC
  7 ._user_heap_stack 00002000  200136f8  200136f8  00020914  2**0
                  ALLOC
  8 .ARM.attributes 00000030  00000000  00000000  00020914  2**0
                  CONTENTS, READONLY
  9 .debug_info   00009316  00000000  00000000  00020944  2**0
                  CONTENTS, READONLY, DEBUGGING
 10 .debug_abbrev 0000202d  00000000  00000000  00029c5a  2**0
                  CONTENTS, READONLY, DEBUGGING
 11 .debug_aranges 00000b88  00000000  00000000  0002bc88  2**3
                  CONTENTS, READONLY, DEBUGGING
 12 .debug_ranges 00000a28  00000000  00000000  0002c810  2**3
                  CONTENTS, READONLY, DEBUGGING
 13 .debug_line   00004c9a  00000000  00000000  0002d238  2**0
                  CONTENTS, READONLY, DEBUGGING
 14 .debug_str    00004252  00000000  00000000  00031ed2  2**0
                  CONTENTS, READONLY, DEBUGGING
 15 .comment      00000100  00000000  00000000  00036124  2**0
                  CONTENTS, READONLY
 16 .debug_frame  0000259c  00000000  00000000  00036224  2**2
                  CONTENTS, READONLY, DEBUGGING
 17 .debug_loc    0000398a  00000000  00000000  000387c0  2**0
                  CONTENTS, READONLY, DEBUGGING

Disassembly of section .text:

08000188 <__do_global_dtors_aux>:
 8000188:	b510      	push	{r4, lr}
 800018a:	4c05      	ldr	r4, [pc, #20]	; (80001a0 <__do_global_dtors_aux+0x18>)
 800018c:	7823      	ldrb	r3, [r4, #0]
 800018e:	b933      	cbnz	r3, 800019e <__do_global_dtors_aux+0x16>
 8000190:	4b04      	ldr	r3, [pc, #16]	; (80001a4 <__do_global_dtors_aux+0x1c>)
 8000192:	b113      	cbz	r3, 800019a <__do_global_dtors_aux+0x12>
 8000194:	4804      	ldr	r0, [pc, #16]	; (80001a8 <__do_global_dtors_aux+0x20>)
 8000196:	f3af 8000 	nop.w
 800019a:	2301      	movs	r3, #1
 800019c:	7023      	strb	r3, [r4, #0]
 800019e:	bd10      	pop	{r4, pc}
 80001a0:	20000914 	.word	0x20000914
 80001a4:	00000000 	.word	0x00000000
 80001a8:	0800502c 	.word	0x0800502c

080001ac <frame_dummy>:
 80001ac:	b508      	push	{r3, lr}
 80001ae:	4b03      	ldr	r3, [pc, #12]	; (80001bc <frame_dummy+0x10>)
 80001b0:	b11b      	cbz	r3, 80001ba <frame_dummy+0xe>
 80001b2:	4903      	ldr	r1, [pc, #12]	; (80001c0 <frame_dummy+0x14>)
 80001b4:	4803      	ldr	r0, [pc, #12]	; (80001c4 <frame_dummy+0x18>)
 80001b6:	f3af 8000 	nop.w
 80001ba:	bd08      	pop	{r3, pc}
 80001bc:	00000000 	.word	0x00000000
 80001c0:	20000918 	.word	0x20000918
 80001c4:	0800502c 	.word	0x0800502c

080001c8 <_sbrk>:
	}

	return len;
}

caddr_t _sbrk(int32_t incr) {
 80001c8:	b480      	push	{r7}
 80001ca:	b085      	sub	sp, #20
 80001cc:	af00      	add	r7, sp, #0
 80001ce:	6078      	str	r0, [r7, #4]

	extern uint32_t _Min_Heap_Size; /* _Min_Heap_Size symbol defined in the linker script. */
	extern uint8_t end asm("end");
	const uint8_t *max_heap = (uint8_t*) ((uint32_t) &end
 80001d0:	4a13      	ldr	r2, [pc, #76]	; (8000220 <_sbrk+0x58>)
	        + (uint32_t) &_Min_Heap_Size);
 80001d2:	4b14      	ldr	r3, [pc, #80]	; (8000224 <_sbrk+0x5c>)
 80001d4:	4413      	add	r3, r2

caddr_t _sbrk(int32_t incr) {

	extern uint32_t _Min_Heap_Size; /* _Min_Heap_Size symbol defined in the linker script. */
	extern uint8_t end asm("end");
	const uint8_t *max_heap = (uint8_t*) ((uint32_t) &end
 80001d6:	60fb      	str	r3, [r7, #12]
	        + (uint32_t) &_Min_Heap_Size);
	static uint8_t *heap_end;
	uint8_t *prev_heap_end;

	if (heap_end == 0) {
 80001d8:	4b13      	ldr	r3, [pc, #76]	; (8000228 <_sbrk+0x60>)
 80001da:	681b      	ldr	r3, [r3, #0]
 80001dc:	2b00      	cmp	r3, #0
 80001de:	d102      	bne.n	80001e6 <_sbrk+0x1e>
		heap_end = &end;
 80001e0:	4b11      	ldr	r3, [pc, #68]	; (8000228 <_sbrk+0x60>)
 80001e2:	4a0f      	ldr	r2, [pc, #60]	; (8000220 <_sbrk+0x58>)
 80001e4:	601a      	str	r2, [r3, #0]
	}

	prev_heap_end = heap_end;
 80001e6:	4b10      	ldr	r3, [pc, #64]	; (8000228 <_sbrk+0x60>)
 80001e8:	681b      	ldr	r3, [r3, #0]
 80001ea:	60bb      	str	r3, [r7, #8]
	if (heap_end + incr > max_heap) {
 80001ec:	4b0e      	ldr	r3, [pc, #56]	; (8000228 <_sbrk+0x60>)
 80001ee:	681a      	ldr	r2, [r3, #0]
 80001f0:	687b      	ldr	r3, [r7, #4]
 80001f2:	441a      	add	r2, r3
 80001f4:	68fb      	ldr	r3, [r7, #12]
 80001f6:	429a      	cmp	r2, r3
 80001f8:	d905      	bls.n	8000206 <_sbrk+0x3e>
//		write(1, "Heap and stack collision\n", 25);
//		abort();
		errno = ENOMEM;
 80001fa:	4b0c      	ldr	r3, [pc, #48]	; (800022c <_sbrk+0x64>)
 80001fc:	220c      	movs	r2, #12
 80001fe:	601a      	str	r2, [r3, #0]
		return (caddr_t) -1;
 8000200:	f04f 33ff 	mov.w	r3, #4294967295
 8000204:	e006      	b.n	8000214 <_sbrk+0x4c>
	}

	heap_end += incr;
 8000206:	4b08      	ldr	r3, [pc, #32]	; (8000228 <_sbrk+0x60>)
 8000208:	681a      	ldr	r2, [r3, #0]
 800020a:	687b      	ldr	r3, [r7, #4]
 800020c:	4413      	add	r3, r2
 800020e:	4a06      	ldr	r2, [pc, #24]	; (8000228 <_sbrk+0x60>)
 8000210:	6013      	str	r3, [r2, #0]

	return (caddr_t) prev_heap_end;
 8000212:	68bb      	ldr	r3, [r7, #8]
}
 8000214:	4618      	mov	r0, r3
 8000216:	3714      	adds	r7, #20
 8000218:	46bd      	mov	sp, r7
 800021a:	f85d 7b04 	ldr.w	r7, [sp], #4
 800021e:	4770      	bx	lr
 8000220:	200136f8 	.word	0x200136f8
 8000224:	00001000 	.word	0x00001000
 8000228:	20000930 	.word	0x20000930
 800022c:	200136ec 	.word	0x200136ec

08000230 <Reset_Handler>:
	.weak	Reset_Handler
	.type	Reset_Handler, %function

Reset_Handler:
	/* Copy the data segment initializers from flash to SRAM */
	movs	r1, #0
 8000230:	2100      	movs	r1, #0
	b		LoopCopyDataInit
 8000232:	e003      	b.n	800023c <LoopCopyDataInit>

08000234 <CopyDataInit>:

CopyDataInit:
	ldr		r3, =_sidata
 8000234:	4b0b      	ldr	r3, [pc, #44]	; (8000264 <ProgramFinish+0x2>)
	ldr		r3, [r3, r1]
 8000236:	585b      	ldr	r3, [r3, r1]
	str		r3, [r0, r1]
 8000238:	5043      	str	r3, [r0, r1]
	adds	r1, r1, #4
 800023a:	3104      	adds	r1, #4

0800023c <LoopCopyDataInit>:

LoopCopyDataInit:
	ldr		r0, =_sdata
 800023c:	480a      	ldr	r0, [pc, #40]	; (8000268 <ProgramFinish+0x6>)
	ldr		r3, =_edata
 800023e:	4b0b      	ldr	r3, [pc, #44]	; (800026c <ProgramFinish+0xa>)
	adds	r2, r0, r1
 8000240:	1842      	adds	r2, r0, r1
	cmp		r2, r3
 8000242:	429a      	cmp	r2, r3
	bcc		CopyDataInit
 8000244:	d3f6      	bcc.n	8000234 <CopyDataInit>
	ldr		r2, =_sbss
 8000246:	4a0a      	ldr	r2, [pc, #40]	; (8000270 <ProgramFinish+0xe>)
	b		LoopFillZerobss
 8000248:	e002      	b.n	8000250 <LoopFillZerobss>

0800024a <FillZerobss>:

/* Zero fill the bss segment. */
FillZerobss:
	movs	r3, #0
 800024a:	2300      	movs	r3, #0
	str		r3, [r2], #4
 800024c:	f842 3b04 	str.w	r3, [r2], #4

08000250 <LoopFillZerobss>:

LoopFillZerobss:
	ldr		r3, =_ebss
 8000250:	4b08      	ldr	r3, [pc, #32]	; (8000274 <ProgramFinish+0x12>)
	cmp		r2, r3
 8000252:	429a      	cmp	r2, r3
	bcc		FillZerobss
 8000254:	d3f9      	bcc.n	800024a <FillZerobss>

	bl		SystemInit	/* Call the clock system intitialization function.	*/
 8000256:	f000 fb55 	bl	8000904 <SystemInit>
	bl		CARME_Init	/* Call the CARME board initialization function.	*/
 800025a:	f000 fe37 	bl	8000ecc <CARME_Init>
	bl		main		/* Call the application's entry point.				*/
 800025e:	f000 f821 	bl	80002a4 <main>

08000262 <ProgramFinish>:
ProgramFinish:
	b		ProgramFinish	/* while true do nothing						*/
 8000262:	e7fe      	b.n	8000262 <ProgramFinish>
	/* Copy the data segment initializers from flash to SRAM */
	movs	r1, #0
	b		LoopCopyDataInit

CopyDataInit:
	ldr		r3, =_sidata
 8000264:	0800504c 	.word	0x0800504c
	ldr		r3, [r3, r1]
	str		r3, [r0, r1]
	adds	r1, r1, #4

LoopCopyDataInit:
	ldr		r0, =_sdata
 8000268:	20000000 	.word	0x20000000
	ldr		r3, =_edata
 800026c:	20000914 	.word	0x20000914
	adds	r2, r0, r1
	cmp		r2, r3
	bcc		CopyDataInit
	ldr		r2, =_sbss
 8000270:	20000914 	.word	0x20000914
FillZerobss:
	movs	r3, #0
	str		r3, [r2], #4

LoopFillZerobss:
	ldr		r3, =_ebss
 8000274:	200136f8 	.word	0x200136f8

08000278 <dowait>:
 *				infinite loop, preserving the system state for examination
 *				by a debugger.
 */
.section	.text.Default_Handler, "ax", %progbits
dowait:
	ldr		r0, =0xA037A0
 8000278:	4806      	ldr	r0, [pc, #24]	; (8000294 <ADC_IRQHandler+0x14>)

0800027a <dowaitloop>:
dowaitloop:
	subs	r0, #1
 800027a:	3801      	subs	r0, #1
	bne		dowaitloop
 800027c:	d1fd      	bne.n	800027a <dowaitloop>
	bx		lr
 800027e:	4770      	bx	lr

08000280 <ADC_IRQHandler>:

Default_Handler:
Infinite_Loop:
	bl		CARME_LED_Red_Set
 8000280:	f001 f8fc 	bl	800147c <CARME_LED_Red_Set>
	bl		dowait
 8000284:	f7ff fff8 	bl	8000278 <dowait>
	bl		CARME_LED_Red_Reset
 8000288:	f001 f902 	bl	8001490 <CARME_LED_Red_Reset>
	bl		dowait
 800028c:	f7ff fff4 	bl	8000278 <dowait>
	b		Infinite_Loop
 8000290:	e7f6      	b.n	8000280 <ADC_IRQHandler>
 8000292:	0000      	.short	0x0000
 *				infinite loop, preserving the system state for examination
 *				by a debugger.
 */
.section	.text.Default_Handler, "ax", %progbits
dowait:
	ldr		r0, =0xA037A0
 8000294:	00a037a0 	.word	0x00a037a0

08000298 <LCD_Init>:
 *
 * \param		None
 * \return		None
 *****************************************************************************
 */
static inline void LCD_Init(void) {
 8000298:	b580      	push	{r7, lr}
 800029a:	af00      	add	r7, sp, #0
	SSD1963_Init();
 800029c:	f000 fc6a 	bl	8000b74 <SSD1963_Init>
}
 80002a0:	bf00      	nop
 80002a2:	bd80      	pop	{r7, pc}

080002a4 <main>:
/**
 * @brief		main
 * @return		0 if success
 */
int main(void)
{
 80002a4:	b580      	push	{r7, lr}
 80002a6:	b084      	sub	sp, #16
 80002a8:	af04      	add	r7, sp, #16
	/* Ensure all priority bits are assigned as preemption priority bits. */
	NVIC_PriorityGroupConfig(NVIC_PriorityGroup_4);
 80002aa:	f44f 7040 	mov.w	r0, #768	; 0x300
 80002ae:	f000 faa3 	bl	80007f8 <NVIC_PriorityGroupConfig>

	/* initialize the mutex variables */
	Muxtex_Can_Tx  				= xSemaphoreCreateMutex();
 80002b2:	2001      	movs	r0, #1
 80002b4:	f003 fa48 	bl	8003748 <xQueueCreateMutex>
 80002b8:	4602      	mov	r2, r0
 80002ba:	4b46      	ldr	r3, [pc, #280]	; (80003d4 <main+0x130>)
 80002bc:	601a      	str	r2, [r3, #0]
	Muxtex_Display 				= xSemaphoreCreateMutex();
 80002be:	2001      	movs	r0, #1
 80002c0:	f003 fa42 	bl	8003748 <xQueueCreateMutex>
 80002c4:	4602      	mov	r2, r0
 80002c6:	4b44      	ldr	r3, [pc, #272]	; (80003d8 <main+0x134>)
 80002c8:	601a      	str	r2, [r3, #0]
	Muxtex_Roboter_Links 		= xSemaphoreCreateMutex();
 80002ca:	2001      	movs	r0, #1
 80002cc:	f003 fa3c 	bl	8003748 <xQueueCreateMutex>
 80002d0:	4602      	mov	r2, r0
 80002d2:	4b42      	ldr	r3, [pc, #264]	; (80003dc <main+0x138>)
 80002d4:	601a      	str	r2, [r3, #0]
	Muxtex_Roboter_Rechts 		= xSemaphoreCreateMutex();
 80002d6:	2001      	movs	r0, #1
 80002d8:	f003 fa36 	bl	8003748 <xQueueCreateMutex>
 80002dc:	4602      	mov	r2, r0
 80002de:	4b40      	ldr	r3, [pc, #256]	; (80003e0 <main+0x13c>)
 80002e0:	601a      	str	r2, [r3, #0]
	Muxtex_Foederband_Links 	= xSemaphoreCreateMutex();
 80002e2:	2001      	movs	r0, #1
 80002e4:	f003 fa30 	bl	8003748 <xQueueCreateMutex>
 80002e8:	4602      	mov	r2, r0
 80002ea:	4b3e      	ldr	r3, [pc, #248]	; (80003e4 <main+0x140>)
 80002ec:	601a      	str	r2, [r3, #0]
	Muxtex_Foederband_Rechts 	= xSemaphoreCreateMutex();
 80002ee:	2001      	movs	r0, #1
 80002f0:	f003 fa2a 	bl	8003748 <xQueueCreateMutex>
 80002f4:	4602      	mov	r2, r0
 80002f6:	4b3c      	ldr	r3, [pc, #240]	; (80003e8 <main+0x144>)
 80002f8:	601a      	str	r2, [r3, #0]
	Muxtex_Foederband_Mitte 	= xSemaphoreCreateMutex();
 80002fa:	2001      	movs	r0, #1
 80002fc:	f003 fa24 	bl	8003748 <xQueueCreateMutex>
 8000300:	4602      	mov	r2, r0
 8000302:	4b3a      	ldr	r3, [pc, #232]	; (80003ec <main+0x148>)
 8000304:	601a      	str	r2, [r3, #0]
	Muxtex_Shifter				= xSemaphoreCreateMutex();
 8000306:	2001      	movs	r0, #1
 8000308:	f003 fa1e 	bl	8003748 <xQueueCreateMutex>
 800030c:	4602      	mov	r2, r0
 800030e:	4b38      	ldr	r3, [pc, #224]	; (80003f0 <main+0x14c>)
 8000310:	601a      	str	r2, [r3, #0]

	Queue_Can_Rx   = xQueueCreate(20, sizeof (CARME_CAN_MESSAGE *));
 8000312:	2200      	movs	r2, #0
 8000314:	2104      	movs	r1, #4
 8000316:	2014      	movs	r0, #20
 8000318:	f003 f9ce 	bl	80036b8 <xQueueGenericCreate>
 800031c:	4602      	mov	r2, r0
 800031e:	4b35      	ldr	r3, [pc, #212]	; (80003f4 <main+0x150>)
 8000320:	601a      	str	r2, [r3, #0]

	/* BEGIN TEST */
	ETCS_Task1_Parameter = &Task1Name;
 8000322:	4b35      	ldr	r3, [pc, #212]	; (80003f8 <main+0x154>)
 8000324:	4a35      	ldr	r2, [pc, #212]	; (80003fc <main+0x158>)
 8000326:	601a      	str	r2, [r3, #0]
	ETCS_Task2_Parameter = &Task2Name;
 8000328:	4b35      	ldr	r3, [pc, #212]	; (8000400 <main+0x15c>)
 800032a:	4a36      	ldr	r2, [pc, #216]	; (8000404 <main+0x160>)
 800032c:	601a      	str	r2, [r3, #0]
	ETCS_Task3_Parameter = &Task3Name;
 800032e:	4b36      	ldr	r3, [pc, #216]	; (8000408 <main+0x164>)
 8000330:	4a36      	ldr	r2, [pc, #216]	; (800040c <main+0x168>)
 8000332:	601a      	str	r2, [r3, #0]
	/* END TeST */

	/* initialize the LCD display */
	LCD_Init();
 8000334:	f7ff ffb0 	bl	8000298 <LCD_Init>
	LCD_SetFont(&font_8x16);
 8000338:	4835      	ldr	r0, [pc, #212]	; (8000410 <main+0x16c>)
 800033a:	f002 f8fb 	bl	8002534 <LCD_SetFont>
	LCD_DisplayStringXY(10, 10, "Can Template CARME-M4");
 800033e:	4a35      	ldr	r2, [pc, #212]	; (8000414 <main+0x170>)
 8000340:	210a      	movs	r1, #10
 8000342:	200a      	movs	r0, #10
 8000344:	f002 f948 	bl	80025d8 <LCD_DisplayStringXY>

	/* initialize the CAN interface */
	CARME_CAN_InitI(CARME_CAN_BAUD_250K, CARME_CAN_DF_RESET, CARME_CAN_INT_RX);
 8000348:	2201      	movs	r2, #1
 800034a:	2100      	movs	r1, #0
 800034c:	4832      	ldr	r0, [pc, #200]	; (8000418 <main+0x174>)
 800034e:	f001 f983 	bl	8001658 <CARME_CAN_InitI>
	CARME_CAN_RegisterIRQCallback(CARME_CAN_IRQID_RX_INTERRUPT, readCanMessageIRQ);
 8000352:	4932      	ldr	r1, [pc, #200]	; (800041c <main+0x178>)
 8000354:	2000      	movs	r0, #0
 8000356:	f001 f99b 	bl	8001690 <CARME_CAN_RegisterIRQCallback>
	CARME_CAN_SetMode(CARME_CAN_DF_NORMAL);
 800035a:	2001      	movs	r0, #1
 800035c:	f001 f9ac 	bl	80016b8 <CARME_CAN_SetMode>

	/* create tasks */
	//xTaskCreate(sendCanMessage,  (const signed char * const)"Send Can Message",  1024, NULL, 4, NULL);
	//xTaskCreate(writeCanMessage, (const signed char * const)"Write Can Message", 1024, NULL, 4, NULL);
	xTaskCreate(TestTask, (const signed char * const)"HelloWorld_1", 1024, ETCS_Task1_Parameter, 3, xHandle_ETCSTask1);
 8000360:	4b25      	ldr	r3, [pc, #148]	; (80003f8 <main+0x154>)
 8000362:	6819      	ldr	r1, [r3, #0]
 8000364:	4b2e      	ldr	r3, [pc, #184]	; (8000420 <main+0x17c>)
 8000366:	681b      	ldr	r3, [r3, #0]
 8000368:	2200      	movs	r2, #0
 800036a:	9203      	str	r2, [sp, #12]
 800036c:	2200      	movs	r2, #0
 800036e:	9202      	str	r2, [sp, #8]
 8000370:	9301      	str	r3, [sp, #4]
 8000372:	2303      	movs	r3, #3
 8000374:	9300      	str	r3, [sp, #0]
 8000376:	460b      	mov	r3, r1
 8000378:	f44f 6280 	mov.w	r2, #1024	; 0x400
 800037c:	4929      	ldr	r1, [pc, #164]	; (8000424 <main+0x180>)
 800037e:	482a      	ldr	r0, [pc, #168]	; (8000428 <main+0x184>)
 8000380:	f002 f952 	bl	8002628 <xTaskGenericCreate>
	xTaskCreate(TestTask, (const signed char * const)"HelloWorld_2", 1024, ETCS_Task2_Parameter, 3, xHandle_ETCSTask2);
 8000384:	4b1e      	ldr	r3, [pc, #120]	; (8000400 <main+0x15c>)
 8000386:	6819      	ldr	r1, [r3, #0]
 8000388:	4b28      	ldr	r3, [pc, #160]	; (800042c <main+0x188>)
 800038a:	681b      	ldr	r3, [r3, #0]
 800038c:	2200      	movs	r2, #0
 800038e:	9203      	str	r2, [sp, #12]
 8000390:	2200      	movs	r2, #0
 8000392:	9202      	str	r2, [sp, #8]
 8000394:	9301      	str	r3, [sp, #4]
 8000396:	2303      	movs	r3, #3
 8000398:	9300      	str	r3, [sp, #0]
 800039a:	460b      	mov	r3, r1
 800039c:	f44f 6280 	mov.w	r2, #1024	; 0x400
 80003a0:	4923      	ldr	r1, [pc, #140]	; (8000430 <main+0x18c>)
 80003a2:	4821      	ldr	r0, [pc, #132]	; (8000428 <main+0x184>)
 80003a4:	f002 f940 	bl	8002628 <xTaskGenericCreate>
	xTaskCreate(TestTask, (const signed char * const)"HelloWorld_3", 1024, ETCS_Task3_Parameter, 3, xHandle_ETCSTask3);
 80003a8:	4b17      	ldr	r3, [pc, #92]	; (8000408 <main+0x164>)
 80003aa:	6819      	ldr	r1, [r3, #0]
 80003ac:	4b21      	ldr	r3, [pc, #132]	; (8000434 <main+0x190>)
 80003ae:	681b      	ldr	r3, [r3, #0]
 80003b0:	2200      	movs	r2, #0
 80003b2:	9203      	str	r2, [sp, #12]
 80003b4:	2200      	movs	r2, #0
 80003b6:	9202      	str	r2, [sp, #8]
 80003b8:	9301      	str	r3, [sp, #4]
 80003ba:	2303      	movs	r3, #3
 80003bc:	9300      	str	r3, [sp, #0]
 80003be:	460b      	mov	r3, r1
 80003c0:	f44f 6280 	mov.w	r2, #1024	; 0x400
 80003c4:	491c      	ldr	r1, [pc, #112]	; (8000438 <main+0x194>)
 80003c6:	4818      	ldr	r0, [pc, #96]	; (8000428 <main+0x184>)
 80003c8:	f002 f92e 	bl	8002628 <xTaskGenericCreate>

	vTaskStartScheduler();
 80003cc:	f002 fa3a 	bl	8002844 <vTaskStartScheduler>

	for(;;){}
 80003d0:	e7fe      	b.n	80003d0 <main+0x12c>
 80003d2:	bf00      	nop
 80003d4:	200136dc 	.word	0x200136dc
 80003d8:	200136e4 	.word	0x200136e4
 80003dc:	200136bc 	.word	0x200136bc
 80003e0:	200136d4 	.word	0x200136d4
 80003e4:	200136c8 	.word	0x200136c8
 80003e8:	200136cc 	.word	0x200136cc
 80003ec:	200136d8 	.word	0x200136d8
 80003f0:	200136e8 	.word	0x200136e8
 80003f4:	200136c0 	.word	0x200136c0
 80003f8:	200136b8 	.word	0x200136b8
 80003fc:	20000000 	.word	0x20000000
 8000400:	200136e0 	.word	0x200136e0
 8000404:	20000001 	.word	0x20000001
 8000408:	200136d0 	.word	0x200136d0
 800040c:	20000002 	.word	0x20000002
 8000410:	20000134 	.word	0x20000134
 8000414:	08004db0 	.word	0x08004db0
 8000418:	0003d090 	.word	0x0003d090
 800041c:	080004bd 	.word	0x080004bd
 8000420:	20000934 	.word	0x20000934
 8000424:	08004dc8 	.word	0x08004dc8
 8000428:	0800043d 	.word	0x0800043d
 800042c:	20000938 	.word	0x20000938
 8000430:	08004dd8 	.word	0x08004dd8
 8000434:	2000093c 	.word	0x2000093c
 8000438:	08004de8 	.word	0x08004de8

0800043c <TestTask>:
}

/**
 * @brief		task sendCanMessage
 */
void TestTask (void *pvData) {
 800043c:	b580      	push	{r7, lr}
 800043e:	b08a      	sub	sp, #40	; 0x28
 8000440:	af00      	add	r7, sp, #0
 8000442:	6078      	str	r0, [r7, #4]
	char u8_Pfad = Pfad_Links;
 8000444:	2301      	movs	r3, #1
 8000446:	f887 3025 	strb.w	r3, [r7, #37]	; 0x25
	char u8_Lokalisation = 0;
 800044a:	2300      	movs	r3, #0
 800044c:	f887 3024 	strb.w	r3, [r7, #36]	; 0x24
	char u8_Destination = 0;
 8000450:	2300      	movs	r3, #0
 8000452:	f887 3023 	strb.w	r3, [r7, #35]	; 0x23
	char b_AutoPfadWechsel = 1;
 8000456:	2301      	movs	r3, #1
 8000458:	f887 3022 	strb.w	r3, [r7, #34]	; 0x22

	char i = 9;
 800045c:	2309      	movs	r3, #9
 800045e:	f887 3027 	strb.w	r3, [r7, #39]	; 0x27
	char counterli = 0;
 8000462:	2300      	movs	r3, #0
 8000464:	f887 3026 	strb.w	r3, [r7, #38]	; 0x26
	CARME_CAN_MESSAGE msg;
	char string[] = "BLA BLA";
 8000468:	4a12      	ldr	r2, [pc, #72]	; (80004b4 <TestTask+0x78>)
 800046a:	f107 0308 	add.w	r3, r7, #8
 800046e:	e892 0003 	ldmia.w	r2, {r0, r1}
 8000472:	e883 0003 	stmia.w	r3, {r0, r1}

	xSemaphoreTake(Muxtex_Shifter, 1000);
 8000476:	4b10      	ldr	r3, [pc, #64]	; (80004b8 <TestTask+0x7c>)
 8000478:	6818      	ldr	r0, [r3, #0]
 800047a:	2300      	movs	r3, #0
 800047c:	f44f 727a 	mov.w	r2, #1000	; 0x3e8
 8000480:	2100      	movs	r1, #0
 8000482:	f003 fae7 	bl	8003a54 <xQueueGenericReceive>
	{/* Nix Gut */}
	else
	{/* Alles Gut */}

	while(1){
		i++;
 8000486:	f897 3027 	ldrb.w	r3, [r7, #39]	; 0x27
 800048a:	3301      	adds	r3, #1
 800048c:	f887 3027 	strb.w	r3, [r7, #39]	; 0x27
		counterli++;
 8000490:	f897 3026 	ldrb.w	r3, [r7, #38]	; 0x26
 8000494:	3301      	adds	r3, #1
 8000496:	f887 3026 	strb.w	r3, [r7, #38]	; 0x26
		////sprintf(string,"MyStackAdressIs%d", pvData);
		////sprintf(string,"Counterli:%d", counterli);
		//TestSemaphore = 100;
		LCD_DisplayStringXY(30, 30, string);
 800049a:	f107 0308 	add.w	r3, r7, #8
 800049e:	461a      	mov	r2, r3
 80004a0:	211e      	movs	r1, #30
 80004a2:	201e      	movs	r0, #30
 80004a4:	f002 f898 	bl	80025d8 <LCD_DisplayStringXY>
		vTaskDelay(800);
 80004a8:	f44f 7048 	mov.w	r0, #800	; 0x320
 80004ac:	f002 f99c 	bl	80027e8 <vTaskDelay>
	}
 80004b0:	e7e9      	b.n	8000486 <TestTask+0x4a>
 80004b2:	bf00      	nop
 80004b4:	08004df8 	.word	0x08004df8
 80004b8:	200136e8 	.word	0x200136e8

080004bc <readCanMessageIRQ>:
}

/**
 * @brief		IRQ readCanMessageIRQ
 */
void readCanMessageIRQ () {
 80004bc:	b580      	push	{r7, lr}
 80004be:	b082      	sub	sp, #8
 80004c0:	af00      	add	r7, sp, #0
	CARME_CAN_MESSAGE *pMsg;
	ERROR_CODES error;

	pMsg = malloc (sizeof (CARME_CAN_MESSAGE));
 80004c2:	2010      	movs	r0, #16
 80004c4:	f000 f822 	bl	800050c <malloc>
 80004c8:	4603      	mov	r3, r0
 80004ca:	603b      	str	r3, [r7, #0]

	if (pMsg != NULL) {
 80004cc:	683b      	ldr	r3, [r7, #0]
 80004ce:	2b00      	cmp	r3, #0
 80004d0:	d015      	beq.n	80004fe <readCanMessageIRQ+0x42>
        // read the new message
		error = CARME_CAN_Read(pMsg);
 80004d2:	683b      	ldr	r3, [r7, #0]
 80004d4:	4618      	mov	r0, r3
 80004d6:	f001 f91b 	bl	8001710 <CARME_CAN_Read>
 80004da:	4603      	mov	r3, r0
 80004dc:	71fb      	strb	r3, [r7, #7]

		if (error == CARME_NO_ERROR) {
 80004de:	79fb      	ldrb	r3, [r7, #7]
 80004e0:	2b00      	cmp	r3, #0
 80004e2:	d108      	bne.n	80004f6 <readCanMessageIRQ+0x3a>
			xQueueSend(Queue_Can_Rx, &pMsg, portMAX_DELAY);
 80004e4:	4b08      	ldr	r3, [pc, #32]	; (8000508 <readCanMessageIRQ+0x4c>)
 80004e6:	6818      	ldr	r0, [r3, #0]
 80004e8:	4639      	mov	r1, r7
 80004ea:	2300      	movs	r3, #0
 80004ec:	f04f 32ff 	mov.w	r2, #4294967295
 80004f0:	f003 f980 	bl	80037f4 <xQueueGenericSend>
		}
		else {
			free (pMsg);
		}
	}
}
 80004f4:	e003      	b.n	80004fe <readCanMessageIRQ+0x42>

		if (error == CARME_NO_ERROR) {
			xQueueSend(Queue_Can_Rx, &pMsg, portMAX_DELAY);
		}
		else {
			free (pMsg);
 80004f6:	683b      	ldr	r3, [r7, #0]
 80004f8:	4618      	mov	r0, r3
 80004fa:	f000 f80f 	bl	800051c <free>
		}
	}
}
 80004fe:	bf00      	nop
 8000500:	3708      	adds	r7, #8
 8000502:	46bd      	mov	sp, r7
 8000504:	bd80      	pop	{r7, pc}
 8000506:	bf00      	nop
 8000508:	200136c0 	.word	0x200136c0

0800050c <malloc>:
 800050c:	4b02      	ldr	r3, [pc, #8]	; (8000518 <malloc+0xc>)
 800050e:	4601      	mov	r1, r0
 8000510:	6818      	ldr	r0, [r3, #0]
 8000512:	f000 b859 	b.w	80005c8 <_malloc_r>
 8000516:	bf00      	nop
 8000518:	20000064 	.word	0x20000064

0800051c <free>:
 800051c:	4b02      	ldr	r3, [pc, #8]	; (8000528 <free+0xc>)
 800051e:	4601      	mov	r1, r0
 8000520:	6818      	ldr	r0, [r3, #0]
 8000522:	f000 b803 	b.w	800052c <_free_r>
 8000526:	bf00      	nop
 8000528:	20000064 	.word	0x20000064

0800052c <_free_r>:
 800052c:	b538      	push	{r3, r4, r5, lr}
 800052e:	4605      	mov	r5, r0
 8000530:	2900      	cmp	r1, #0
 8000532:	d046      	beq.n	80005c2 <_free_r+0x96>
 8000534:	f851 3c04 	ldr.w	r3, [r1, #-4]
 8000538:	1f0c      	subs	r4, r1, #4
 800053a:	2b00      	cmp	r3, #0
 800053c:	bfb8      	it	lt
 800053e:	18e4      	addlt	r4, r4, r3
 8000540:	f000 f8b0 	bl	80006a4 <__malloc_lock>
 8000544:	4a1f      	ldr	r2, [pc, #124]	; (80005c4 <_free_r+0x98>)
 8000546:	6813      	ldr	r3, [r2, #0]
 8000548:	4611      	mov	r1, r2
 800054a:	b913      	cbnz	r3, 8000552 <_free_r+0x26>
 800054c:	6063      	str	r3, [r4, #4]
 800054e:	6014      	str	r4, [r2, #0]
 8000550:	e032      	b.n	80005b8 <_free_r+0x8c>
 8000552:	42a3      	cmp	r3, r4
 8000554:	d90e      	bls.n	8000574 <_free_r+0x48>
 8000556:	6822      	ldr	r2, [r4, #0]
 8000558:	18a0      	adds	r0, r4, r2
 800055a:	4283      	cmp	r3, r0
 800055c:	bf04      	itt	eq
 800055e:	6818      	ldreq	r0, [r3, #0]
 8000560:	685b      	ldreq	r3, [r3, #4]
 8000562:	6063      	str	r3, [r4, #4]
 8000564:	bf04      	itt	eq
 8000566:	1812      	addeq	r2, r2, r0
 8000568:	6022      	streq	r2, [r4, #0]
 800056a:	600c      	str	r4, [r1, #0]
 800056c:	e024      	b.n	80005b8 <_free_r+0x8c>
 800056e:	42a2      	cmp	r2, r4
 8000570:	d803      	bhi.n	800057a <_free_r+0x4e>
 8000572:	4613      	mov	r3, r2
 8000574:	685a      	ldr	r2, [r3, #4]
 8000576:	2a00      	cmp	r2, #0
 8000578:	d1f9      	bne.n	800056e <_free_r+0x42>
 800057a:	6818      	ldr	r0, [r3, #0]
 800057c:	1819      	adds	r1, r3, r0
 800057e:	42a1      	cmp	r1, r4
 8000580:	d10b      	bne.n	800059a <_free_r+0x6e>
 8000582:	6821      	ldr	r1, [r4, #0]
 8000584:	4401      	add	r1, r0
 8000586:	1858      	adds	r0, r3, r1
 8000588:	4282      	cmp	r2, r0
 800058a:	6019      	str	r1, [r3, #0]
 800058c:	d114      	bne.n	80005b8 <_free_r+0x8c>
 800058e:	6810      	ldr	r0, [r2, #0]
 8000590:	6852      	ldr	r2, [r2, #4]
 8000592:	605a      	str	r2, [r3, #4]
 8000594:	4401      	add	r1, r0
 8000596:	6019      	str	r1, [r3, #0]
 8000598:	e00e      	b.n	80005b8 <_free_r+0x8c>
 800059a:	d902      	bls.n	80005a2 <_free_r+0x76>
 800059c:	230c      	movs	r3, #12
 800059e:	602b      	str	r3, [r5, #0]
 80005a0:	e00a      	b.n	80005b8 <_free_r+0x8c>
 80005a2:	6821      	ldr	r1, [r4, #0]
 80005a4:	1860      	adds	r0, r4, r1
 80005a6:	4282      	cmp	r2, r0
 80005a8:	bf04      	itt	eq
 80005aa:	6810      	ldreq	r0, [r2, #0]
 80005ac:	6852      	ldreq	r2, [r2, #4]
 80005ae:	6062      	str	r2, [r4, #4]
 80005b0:	bf04      	itt	eq
 80005b2:	1809      	addeq	r1, r1, r0
 80005b4:	6021      	streq	r1, [r4, #0]
 80005b6:	605c      	str	r4, [r3, #4]
 80005b8:	4628      	mov	r0, r5
 80005ba:	e8bd 4038 	ldmia.w	sp!, {r3, r4, r5, lr}
 80005be:	f000 b872 	b.w	80006a6 <__malloc_unlock>
 80005c2:	bd38      	pop	{r3, r4, r5, pc}
 80005c4:	20000944 	.word	0x20000944

080005c8 <_malloc_r>:
 80005c8:	b570      	push	{r4, r5, r6, lr}
 80005ca:	1ccd      	adds	r5, r1, #3
 80005cc:	f025 0503 	bic.w	r5, r5, #3
 80005d0:	3508      	adds	r5, #8
 80005d2:	2d0c      	cmp	r5, #12
 80005d4:	bf38      	it	cc
 80005d6:	250c      	movcc	r5, #12
 80005d8:	2d00      	cmp	r5, #0
 80005da:	4606      	mov	r6, r0
 80005dc:	db01      	blt.n	80005e2 <_malloc_r+0x1a>
 80005de:	42a9      	cmp	r1, r5
 80005e0:	d902      	bls.n	80005e8 <_malloc_r+0x20>
 80005e2:	230c      	movs	r3, #12
 80005e4:	6033      	str	r3, [r6, #0]
 80005e6:	e046      	b.n	8000676 <_malloc_r+0xae>
 80005e8:	f000 f85c 	bl	80006a4 <__malloc_lock>
 80005ec:	4b23      	ldr	r3, [pc, #140]	; (800067c <_malloc_r+0xb4>)
 80005ee:	681c      	ldr	r4, [r3, #0]
 80005f0:	461a      	mov	r2, r3
 80005f2:	4621      	mov	r1, r4
 80005f4:	b1a1      	cbz	r1, 8000620 <_malloc_r+0x58>
 80005f6:	680b      	ldr	r3, [r1, #0]
 80005f8:	1b5b      	subs	r3, r3, r5
 80005fa:	d40e      	bmi.n	800061a <_malloc_r+0x52>
 80005fc:	2b0b      	cmp	r3, #11
 80005fe:	d903      	bls.n	8000608 <_malloc_r+0x40>
 8000600:	600b      	str	r3, [r1, #0]
 8000602:	18cc      	adds	r4, r1, r3
 8000604:	50cd      	str	r5, [r1, r3]
 8000606:	e01e      	b.n	8000646 <_malloc_r+0x7e>
 8000608:	428c      	cmp	r4, r1
 800060a:	bf0d      	iteet	eq
 800060c:	6863      	ldreq	r3, [r4, #4]
 800060e:	684b      	ldrne	r3, [r1, #4]
 8000610:	6063      	strne	r3, [r4, #4]
 8000612:	6013      	streq	r3, [r2, #0]
 8000614:	bf18      	it	ne
 8000616:	460c      	movne	r4, r1
 8000618:	e015      	b.n	8000646 <_malloc_r+0x7e>
 800061a:	460c      	mov	r4, r1
 800061c:	6849      	ldr	r1, [r1, #4]
 800061e:	e7e9      	b.n	80005f4 <_malloc_r+0x2c>
 8000620:	4c17      	ldr	r4, [pc, #92]	; (8000680 <_malloc_r+0xb8>)
 8000622:	6823      	ldr	r3, [r4, #0]
 8000624:	b91b      	cbnz	r3, 800062e <_malloc_r+0x66>
 8000626:	4630      	mov	r0, r6
 8000628:	f000 f82c 	bl	8000684 <_sbrk_r>
 800062c:	6020      	str	r0, [r4, #0]
 800062e:	4629      	mov	r1, r5
 8000630:	4630      	mov	r0, r6
 8000632:	f000 f827 	bl	8000684 <_sbrk_r>
 8000636:	1c43      	adds	r3, r0, #1
 8000638:	d018      	beq.n	800066c <_malloc_r+0xa4>
 800063a:	1cc4      	adds	r4, r0, #3
 800063c:	f024 0403 	bic.w	r4, r4, #3
 8000640:	42a0      	cmp	r0, r4
 8000642:	d10d      	bne.n	8000660 <_malloc_r+0x98>
 8000644:	6025      	str	r5, [r4, #0]
 8000646:	4630      	mov	r0, r6
 8000648:	f000 f82d 	bl	80006a6 <__malloc_unlock>
 800064c:	f104 000b 	add.w	r0, r4, #11
 8000650:	1d23      	adds	r3, r4, #4
 8000652:	f020 0007 	bic.w	r0, r0, #7
 8000656:	1ac3      	subs	r3, r0, r3
 8000658:	d00e      	beq.n	8000678 <_malloc_r+0xb0>
 800065a:	425a      	negs	r2, r3
 800065c:	50e2      	str	r2, [r4, r3]
 800065e:	bd70      	pop	{r4, r5, r6, pc}
 8000660:	1a21      	subs	r1, r4, r0
 8000662:	4630      	mov	r0, r6
 8000664:	f000 f80e 	bl	8000684 <_sbrk_r>
 8000668:	3001      	adds	r0, #1
 800066a:	d1eb      	bne.n	8000644 <_malloc_r+0x7c>
 800066c:	230c      	movs	r3, #12
 800066e:	6033      	str	r3, [r6, #0]
 8000670:	4630      	mov	r0, r6
 8000672:	f000 f818 	bl	80006a6 <__malloc_unlock>
 8000676:	2000      	movs	r0, #0
 8000678:	bd70      	pop	{r4, r5, r6, pc}
 800067a:	bf00      	nop
 800067c:	20000944 	.word	0x20000944
 8000680:	20000940 	.word	0x20000940

08000684 <_sbrk_r>:
 8000684:	b538      	push	{r3, r4, r5, lr}
 8000686:	4c06      	ldr	r4, [pc, #24]	; (80006a0 <_sbrk_r+0x1c>)
 8000688:	2300      	movs	r3, #0
 800068a:	4605      	mov	r5, r0
 800068c:	4608      	mov	r0, r1
 800068e:	6023      	str	r3, [r4, #0]
 8000690:	f7ff fd9a 	bl	80001c8 <_sbrk>
 8000694:	1c43      	adds	r3, r0, #1
 8000696:	d102      	bne.n	800069e <_sbrk_r+0x1a>
 8000698:	6823      	ldr	r3, [r4, #0]
 800069a:	b103      	cbz	r3, 800069e <_sbrk_r+0x1a>
 800069c:	602b      	str	r3, [r5, #0]
 800069e:	bd38      	pop	{r3, r4, r5, pc}
 80006a0:	200136ec 	.word	0x200136ec

080006a4 <__malloc_lock>:
 80006a4:	4770      	bx	lr

080006a6 <__malloc_unlock>:
 80006a6:	4770      	bx	lr

080006a8 <RCC_AHB1PeriphClockCmd>:
 80006a8:	b480      	push	{r7}
 80006aa:	b083      	sub	sp, #12
 80006ac:	af00      	add	r7, sp, #0
 80006ae:	6078      	str	r0, [r7, #4]
 80006b0:	460b      	mov	r3, r1
 80006b2:	70fb      	strb	r3, [r7, #3]
 80006b4:	78fb      	ldrb	r3, [r7, #3]
 80006b6:	2b00      	cmp	r3, #0
 80006b8:	d00c      	beq.n	80006d4 <RCC_AHB1PeriphClockCmd+0x2c>
 80006ba:	f44f 5360 	mov.w	r3, #14336	; 0x3800
 80006be:	f2c4 0302 	movt	r3, #16386	; 0x4002
 80006c2:	f44f 5260 	mov.w	r2, #14336	; 0x3800
 80006c6:	f2c4 0202 	movt	r2, #16386	; 0x4002
 80006ca:	6b11      	ldr	r1, [r2, #48]	; 0x30
 80006cc:	687a      	ldr	r2, [r7, #4]
 80006ce:	430a      	orrs	r2, r1
 80006d0:	631a      	str	r2, [r3, #48]	; 0x30
 80006d2:	e00d      	b.n	80006f0 <RCC_AHB1PeriphClockCmd+0x48>
 80006d4:	f44f 5360 	mov.w	r3, #14336	; 0x3800
 80006d8:	f2c4 0302 	movt	r3, #16386	; 0x4002
 80006dc:	f44f 5260 	mov.w	r2, #14336	; 0x3800
 80006e0:	f2c4 0202 	movt	r2, #16386	; 0x4002
 80006e4:	6b11      	ldr	r1, [r2, #48]	; 0x30
 80006e6:	687a      	ldr	r2, [r7, #4]
 80006e8:	ea6f 0202 	mvn.w	r2, r2
 80006ec:	400a      	ands	r2, r1
 80006ee:	631a      	str	r2, [r3, #48]	; 0x30
 80006f0:	f107 070c 	add.w	r7, r7, #12
 80006f4:	46bd      	mov	sp, r7
 80006f6:	bc80      	pop	{r7}
 80006f8:	4770      	bx	lr
 80006fa:	bf00      	nop

080006fc <RCC_AHB3PeriphClockCmd>:
 80006fc:	b480      	push	{r7}
 80006fe:	b083      	sub	sp, #12
 8000700:	af00      	add	r7, sp, #0
 8000702:	6078      	str	r0, [r7, #4]
 8000704:	460b      	mov	r3, r1
 8000706:	70fb      	strb	r3, [r7, #3]
 8000708:	78fb      	ldrb	r3, [r7, #3]
 800070a:	2b00      	cmp	r3, #0
 800070c:	d00c      	beq.n	8000728 <RCC_AHB3PeriphClockCmd+0x2c>
 800070e:	f44f 5360 	mov.w	r3, #14336	; 0x3800
 8000712:	f2c4 0302 	movt	r3, #16386	; 0x4002
 8000716:	f44f 5260 	mov.w	r2, #14336	; 0x3800
 800071a:	f2c4 0202 	movt	r2, #16386	; 0x4002
 800071e:	6b91      	ldr	r1, [r2, #56]	; 0x38
 8000720:	687a      	ldr	r2, [r7, #4]
 8000722:	430a      	orrs	r2, r1
 8000724:	639a      	str	r2, [r3, #56]	; 0x38
 8000726:	e00d      	b.n	8000744 <RCC_AHB3PeriphClockCmd+0x48>
 8000728:	f44f 5360 	mov.w	r3, #14336	; 0x3800
 800072c:	f2c4 0302 	movt	r3, #16386	; 0x4002
 8000730:	f44f 5260 	mov.w	r2, #14336	; 0x3800
 8000734:	f2c4 0202 	movt	r2, #16386	; 0x4002
 8000738:	6b91      	ldr	r1, [r2, #56]	; 0x38
 800073a:	687a      	ldr	r2, [r7, #4]
 800073c:	ea6f 0202 	mvn.w	r2, r2
 8000740:	400a      	ands	r2, r1
 8000742:	639a      	str	r2, [r3, #56]	; 0x38
 8000744:	f107 070c 	add.w	r7, r7, #12
 8000748:	46bd      	mov	sp, r7
 800074a:	bc80      	pop	{r7}
 800074c:	4770      	bx	lr
 800074e:	bf00      	nop

08000750 <RCC_APB2PeriphClockCmd>:
 8000750:	b480      	push	{r7}
 8000752:	b083      	sub	sp, #12
 8000754:	af00      	add	r7, sp, #0
 8000756:	6078      	str	r0, [r7, #4]
 8000758:	460b      	mov	r3, r1
 800075a:	70fb      	strb	r3, [r7, #3]
 800075c:	78fb      	ldrb	r3, [r7, #3]
 800075e:	2b00      	cmp	r3, #0
 8000760:	d00c      	beq.n	800077c <RCC_APB2PeriphClockCmd+0x2c>
 8000762:	f44f 5360 	mov.w	r3, #14336	; 0x3800
 8000766:	f2c4 0302 	movt	r3, #16386	; 0x4002
 800076a:	f44f 5260 	mov.w	r2, #14336	; 0x3800
 800076e:	f2c4 0202 	movt	r2, #16386	; 0x4002
 8000772:	6c51      	ldr	r1, [r2, #68]	; 0x44
 8000774:	687a      	ldr	r2, [r7, #4]
 8000776:	430a      	orrs	r2, r1
 8000778:	645a      	str	r2, [r3, #68]	; 0x44
 800077a:	e00d      	b.n	8000798 <RCC_APB2PeriphClockCmd+0x48>
 800077c:	f44f 5360 	mov.w	r3, #14336	; 0x3800
 8000780:	f2c4 0302 	movt	r3, #16386	; 0x4002
 8000784:	f44f 5260 	mov.w	r2, #14336	; 0x3800
 8000788:	f2c4 0202 	movt	r2, #16386	; 0x4002
 800078c:	6c51      	ldr	r1, [r2, #68]	; 0x44
 800078e:	687a      	ldr	r2, [r7, #4]
 8000790:	ea6f 0202 	mvn.w	r2, r2
 8000794:	400a      	ands	r2, r1
 8000796:	645a      	str	r2, [r3, #68]	; 0x44
 8000798:	f107 070c 	add.w	r7, r7, #12
 800079c:	46bd      	mov	sp, r7
 800079e:	bc80      	pop	{r7}
 80007a0:	4770      	bx	lr
 80007a2:	bf00      	nop

080007a4 <RCC_AHB1PeriphResetCmd>:
 80007a4:	b480      	push	{r7}
 80007a6:	b083      	sub	sp, #12
 80007a8:	af00      	add	r7, sp, #0
 80007aa:	6078      	str	r0, [r7, #4]
 80007ac:	460b      	mov	r3, r1
 80007ae:	70fb      	strb	r3, [r7, #3]
 80007b0:	78fb      	ldrb	r3, [r7, #3]
 80007b2:	2b00      	cmp	r3, #0
 80007b4:	d00c      	beq.n	80007d0 <RCC_AHB1PeriphResetCmd+0x2c>
 80007b6:	f44f 5360 	mov.w	r3, #14336	; 0x3800
 80007ba:	f2c4 0302 	movt	r3, #16386	; 0x4002
 80007be:	f44f 5260 	mov.w	r2, #14336	; 0x3800
 80007c2:	f2c4 0202 	movt	r2, #16386	; 0x4002
 80007c6:	6911      	ldr	r1, [r2, #16]
 80007c8:	687a      	ldr	r2, [r7, #4]
 80007ca:	430a      	orrs	r2, r1
 80007cc:	611a      	str	r2, [r3, #16]
 80007ce:	e00d      	b.n	80007ec <RCC_AHB1PeriphResetCmd+0x48>
 80007d0:	f44f 5360 	mov.w	r3, #14336	; 0x3800
 80007d4:	f2c4 0302 	movt	r3, #16386	; 0x4002
 80007d8:	f44f 5260 	mov.w	r2, #14336	; 0x3800
 80007dc:	f2c4 0202 	movt	r2, #16386	; 0x4002
 80007e0:	6911      	ldr	r1, [r2, #16]
 80007e2:	687a      	ldr	r2, [r7, #4]
 80007e4:	ea6f 0202 	mvn.w	r2, r2
 80007e8:	400a      	ands	r2, r1
 80007ea:	611a      	str	r2, [r3, #16]
 80007ec:	f107 070c 	add.w	r7, r7, #12
 80007f0:	46bd      	mov	sp, r7
 80007f2:	bc80      	pop	{r7}
 80007f4:	4770      	bx	lr
 80007f6:	bf00      	nop

080007f8 <NVIC_PriorityGroupConfig>:
 80007f8:	b480      	push	{r7}
 80007fa:	b083      	sub	sp, #12
 80007fc:	af00      	add	r7, sp, #0
 80007fe:	6078      	str	r0, [r7, #4]
 8000800:	f44f 436d 	mov.w	r3, #60672	; 0xed00
 8000804:	f2ce 0300 	movt	r3, #57344	; 0xe000
 8000808:	687a      	ldr	r2, [r7, #4]
 800080a:	f042 62bf 	orr.w	r2, r2, #100139008	; 0x5f80000
 800080e:	f442 3200 	orr.w	r2, r2, #131072	; 0x20000
 8000812:	60da      	str	r2, [r3, #12]
 8000814:	f107 070c 	add.w	r7, r7, #12
 8000818:	46bd      	mov	sp, r7
 800081a:	bc80      	pop	{r7}
 800081c:	4770      	bx	lr
 800081e:	bf00      	nop

08000820 <NVIC_Init>:
 8000820:	b480      	push	{r7}
 8000822:	b085      	sub	sp, #20
 8000824:	af00      	add	r7, sp, #0
 8000826:	6078      	str	r0, [r7, #4]
 8000828:	f04f 0300 	mov.w	r3, #0
 800082c:	73fb      	strb	r3, [r7, #15]
 800082e:	f04f 0300 	mov.w	r3, #0
 8000832:	73bb      	strb	r3, [r7, #14]
 8000834:	f04f 030f 	mov.w	r3, #15
 8000838:	737b      	strb	r3, [r7, #13]
 800083a:	687b      	ldr	r3, [r7, #4]
 800083c:	78db      	ldrb	r3, [r3, #3]
 800083e:	2b00      	cmp	r3, #0
 8000840:	d045      	beq.n	80008ce <NVIC_Init+0xae>
 8000842:	f44f 436d 	mov.w	r3, #60672	; 0xed00
 8000846:	f2ce 0300 	movt	r3, #57344	; 0xe000
 800084a:	68db      	ldr	r3, [r3, #12]
 800084c:	ea6f 0303 	mvn.w	r3, r3
 8000850:	f403 63e0 	and.w	r3, r3, #1792	; 0x700
 8000854:	ea4f 2313 	mov.w	r3, r3, lsr #8
 8000858:	73fb      	strb	r3, [r7, #15]
 800085a:	7bfb      	ldrb	r3, [r7, #15]
 800085c:	f1c3 0304 	rsb	r3, r3, #4
 8000860:	73bb      	strb	r3, [r7, #14]
 8000862:	7b7a      	ldrb	r2, [r7, #13]
 8000864:	7bfb      	ldrb	r3, [r7, #15]
 8000866:	fa42 f303 	asr.w	r3, r2, r3
 800086a:	737b      	strb	r3, [r7, #13]
 800086c:	687b      	ldr	r3, [r7, #4]
 800086e:	785b      	ldrb	r3, [r3, #1]
 8000870:	461a      	mov	r2, r3
 8000872:	7bbb      	ldrb	r3, [r7, #14]
 8000874:	fa02 f303 	lsl.w	r3, r2, r3
 8000878:	73fb      	strb	r3, [r7, #15]
 800087a:	687b      	ldr	r3, [r7, #4]
 800087c:	789a      	ldrb	r2, [r3, #2]
 800087e:	7b7b      	ldrb	r3, [r7, #13]
 8000880:	4013      	ands	r3, r2
 8000882:	b2da      	uxtb	r2, r3
 8000884:	7bfb      	ldrb	r3, [r7, #15]
 8000886:	4313      	orrs	r3, r2
 8000888:	73fb      	strb	r3, [r7, #15]
 800088a:	7bfb      	ldrb	r3, [r7, #15]
 800088c:	ea4f 1303 	mov.w	r3, r3, lsl #4
 8000890:	73fb      	strb	r3, [r7, #15]
 8000892:	f44f 4361 	mov.w	r3, #57600	; 0xe100
 8000896:	f2ce 0300 	movt	r3, #57344	; 0xe000
 800089a:	687a      	ldr	r2, [r7, #4]
 800089c:	7812      	ldrb	r2, [r2, #0]
 800089e:	189b      	adds	r3, r3, r2
 80008a0:	7bfa      	ldrb	r2, [r7, #15]
 80008a2:	f883 2300 	strb.w	r2, [r3, #768]	; 0x300
 80008a6:	f44f 4361 	mov.w	r3, #57600	; 0xe100
 80008aa:	f2ce 0300 	movt	r3, #57344	; 0xe000
 80008ae:	687a      	ldr	r2, [r7, #4]
 80008b0:	7812      	ldrb	r2, [r2, #0]
 80008b2:	ea4f 1252 	mov.w	r2, r2, lsr #5
 80008b6:	b2d2      	uxtb	r2, r2
 80008b8:	6879      	ldr	r1, [r7, #4]
 80008ba:	7809      	ldrb	r1, [r1, #0]
 80008bc:	f001 011f 	and.w	r1, r1, #31
 80008c0:	f04f 0001 	mov.w	r0, #1
 80008c4:	fa00 f101 	lsl.w	r1, r0, r1
 80008c8:	f843 1022 	str.w	r1, [r3, r2, lsl #2]
 80008cc:	e014      	b.n	80008f8 <NVIC_Init+0xd8>
 80008ce:	f44f 4361 	mov.w	r3, #57600	; 0xe100
 80008d2:	f2ce 0300 	movt	r3, #57344	; 0xe000
 80008d6:	687a      	ldr	r2, [r7, #4]
 80008d8:	7812      	ldrb	r2, [r2, #0]
 80008da:	ea4f 1252 	mov.w	r2, r2, lsr #5
 80008de:	b2d2      	uxtb	r2, r2
 80008e0:	6879      	ldr	r1, [r7, #4]
 80008e2:	7809      	ldrb	r1, [r1, #0]
 80008e4:	f001 011f 	and.w	r1, r1, #31
 80008e8:	f04f 0001 	mov.w	r0, #1
 80008ec:	fa00 f101 	lsl.w	r1, r0, r1
 80008f0:	f102 0220 	add.w	r2, r2, #32
 80008f4:	f843 1022 	str.w	r1, [r3, r2, lsl #2]
 80008f8:	f107 0714 	add.w	r7, r7, #20
 80008fc:	46bd      	mov	sp, r7
 80008fe:	bc80      	pop	{r7}
 8000900:	4770      	bx	lr
 8000902:	bf00      	nop

08000904 <SystemInit>:
 8000904:	b580      	push	{r7, lr}
 8000906:	af00      	add	r7, sp, #0
 8000908:	f44f 436d 	mov.w	r3, #60672	; 0xed00
 800090c:	f2ce 0300 	movt	r3, #57344	; 0xe000
 8000910:	f44f 426d 	mov.w	r2, #60672	; 0xed00
 8000914:	f2ce 0200 	movt	r2, #57344	; 0xe000
 8000918:	f8d2 2088 	ldr.w	r2, [r2, #136]	; 0x88
 800091c:	f442 0270 	orr.w	r2, r2, #15728640	; 0xf00000
 8000920:	f8c3 2088 	str.w	r2, [r3, #136]	; 0x88
 8000924:	f44f 5360 	mov.w	r3, #14336	; 0x3800
 8000928:	f2c4 0302 	movt	r3, #16386	; 0x4002
 800092c:	f44f 5260 	mov.w	r2, #14336	; 0x3800
 8000930:	f2c4 0202 	movt	r2, #16386	; 0x4002
 8000934:	6812      	ldr	r2, [r2, #0]
 8000936:	f042 0201 	orr.w	r2, r2, #1
 800093a:	601a      	str	r2, [r3, #0]
 800093c:	f44f 5360 	mov.w	r3, #14336	; 0x3800
 8000940:	f2c4 0302 	movt	r3, #16386	; 0x4002
 8000944:	f04f 0200 	mov.w	r2, #0
 8000948:	609a      	str	r2, [r3, #8]
 800094a:	f44f 5360 	mov.w	r3, #14336	; 0x3800
 800094e:	f2c4 0302 	movt	r3, #16386	; 0x4002
 8000952:	f44f 5260 	mov.w	r2, #14336	; 0x3800
 8000956:	f2c4 0202 	movt	r2, #16386	; 0x4002
 800095a:	6812      	ldr	r2, [r2, #0]
 800095c:	f022 7284 	bic.w	r2, r2, #17301504	; 0x1080000
 8000960:	f422 3280 	bic.w	r2, r2, #65536	; 0x10000
 8000964:	601a      	str	r2, [r3, #0]
 8000966:	f44f 5360 	mov.w	r3, #14336	; 0x3800
 800096a:	f2c4 0302 	movt	r3, #16386	; 0x4002
 800096e:	f243 0210 	movw	r2, #12304	; 0x3010
 8000972:	f2c2 4200 	movt	r2, #9216	; 0x2400
 8000976:	605a      	str	r2, [r3, #4]
 8000978:	f44f 5360 	mov.w	r3, #14336	; 0x3800
 800097c:	f2c4 0302 	movt	r3, #16386	; 0x4002
 8000980:	f44f 5260 	mov.w	r2, #14336	; 0x3800
 8000984:	f2c4 0202 	movt	r2, #16386	; 0x4002
 8000988:	6812      	ldr	r2, [r2, #0]
 800098a:	f422 2280 	bic.w	r2, r2, #262144	; 0x40000
 800098e:	601a      	str	r2, [r3, #0]
 8000990:	f44f 5360 	mov.w	r3, #14336	; 0x3800
 8000994:	f2c4 0302 	movt	r3, #16386	; 0x4002
 8000998:	f04f 0200 	mov.w	r2, #0
 800099c:	60da      	str	r2, [r3, #12]
 800099e:	f000 f809 	bl	80009b4 <SetSysClock>
 80009a2:	f44f 436d 	mov.w	r3, #60672	; 0xed00
 80009a6:	f2ce 0300 	movt	r3, #57344	; 0xe000
 80009aa:	f04f 6200 	mov.w	r2, #134217728	; 0x8000000
 80009ae:	609a      	str	r2, [r3, #8]
 80009b0:	bd80      	pop	{r7, pc}
 80009b2:	bf00      	nop

080009b4 <SetSysClock>:
 80009b4:	b480      	push	{r7}
 80009b6:	b083      	sub	sp, #12
 80009b8:	af00      	add	r7, sp, #0
 80009ba:	f04f 0300 	mov.w	r3, #0
 80009be:	607b      	str	r3, [r7, #4]
 80009c0:	f04f 0300 	mov.w	r3, #0
 80009c4:	603b      	str	r3, [r7, #0]
 80009c6:	f44f 5360 	mov.w	r3, #14336	; 0x3800
 80009ca:	f2c4 0302 	movt	r3, #16386	; 0x4002
 80009ce:	f44f 5260 	mov.w	r2, #14336	; 0x3800
 80009d2:	f2c4 0202 	movt	r2, #16386	; 0x4002
 80009d6:	6812      	ldr	r2, [r2, #0]
 80009d8:	f442 3280 	orr.w	r2, r2, #65536	; 0x10000
 80009dc:	601a      	str	r2, [r3, #0]
 80009de:	f44f 5360 	mov.w	r3, #14336	; 0x3800
 80009e2:	f2c4 0302 	movt	r3, #16386	; 0x4002
 80009e6:	681b      	ldr	r3, [r3, #0]
 80009e8:	f403 3300 	and.w	r3, r3, #131072	; 0x20000
 80009ec:	603b      	str	r3, [r7, #0]
 80009ee:	687b      	ldr	r3, [r7, #4]
 80009f0:	f103 0301 	add.w	r3, r3, #1
 80009f4:	607b      	str	r3, [r7, #4]
 80009f6:	683b      	ldr	r3, [r7, #0]
 80009f8:	2b00      	cmp	r3, #0
 80009fa:	d103      	bne.n	8000a04 <SetSysClock+0x50>
 80009fc:	687b      	ldr	r3, [r7, #4]
 80009fe:	f5b3 4fa0 	cmp.w	r3, #20480	; 0x5000
 8000a02:	d1ec      	bne.n	80009de <SetSysClock+0x2a>
 8000a04:	f44f 5360 	mov.w	r3, #14336	; 0x3800
 8000a08:	f2c4 0302 	movt	r3, #16386	; 0x4002
 8000a0c:	681b      	ldr	r3, [r3, #0]
 8000a0e:	f403 3300 	and.w	r3, r3, #131072	; 0x20000
 8000a12:	2b00      	cmp	r3, #0
 8000a14:	d003      	beq.n	8000a1e <SetSysClock+0x6a>
 8000a16:	f04f 0301 	mov.w	r3, #1
 8000a1a:	603b      	str	r3, [r7, #0]
 8000a1c:	e002      	b.n	8000a24 <SetSysClock+0x70>
 8000a1e:	f04f 0300 	mov.w	r3, #0
 8000a22:	603b      	str	r3, [r7, #0]
 8000a24:	683b      	ldr	r3, [r7, #0]
 8000a26:	2b01      	cmp	r3, #1
 8000a28:	f040 8082 	bne.w	8000b30 <SetSysClock+0x17c>
 8000a2c:	f44f 5360 	mov.w	r3, #14336	; 0x3800
 8000a30:	f2c4 0302 	movt	r3, #16386	; 0x4002
 8000a34:	f44f 5260 	mov.w	r2, #14336	; 0x3800
 8000a38:	f2c4 0202 	movt	r2, #16386	; 0x4002
 8000a3c:	6c12      	ldr	r2, [r2, #64]	; 0x40
 8000a3e:	f042 5280 	orr.w	r2, r2, #268435456	; 0x10000000
 8000a42:	641a      	str	r2, [r3, #64]	; 0x40
 8000a44:	f44f 43e0 	mov.w	r3, #28672	; 0x7000
 8000a48:	f2c4 0300 	movt	r3, #16384	; 0x4000
 8000a4c:	f44f 42e0 	mov.w	r2, #28672	; 0x7000
 8000a50:	f2c4 0200 	movt	r2, #16384	; 0x4000
 8000a54:	6812      	ldr	r2, [r2, #0]
 8000a56:	f442 4240 	orr.w	r2, r2, #49152	; 0xc000
 8000a5a:	601a      	str	r2, [r3, #0]
 8000a5c:	f44f 5360 	mov.w	r3, #14336	; 0x3800
 8000a60:	f2c4 0302 	movt	r3, #16386	; 0x4002
 8000a64:	f44f 5260 	mov.w	r2, #14336	; 0x3800
 8000a68:	f2c4 0202 	movt	r2, #16386	; 0x4002
 8000a6c:	6892      	ldr	r2, [r2, #8]
 8000a6e:	609a      	str	r2, [r3, #8]
 8000a70:	f44f 5360 	mov.w	r3, #14336	; 0x3800
 8000a74:	f2c4 0302 	movt	r3, #16386	; 0x4002
 8000a78:	f44f 5260 	mov.w	r2, #14336	; 0x3800
 8000a7c:	f2c4 0202 	movt	r2, #16386	; 0x4002
 8000a80:	6892      	ldr	r2, [r2, #8]
 8000a82:	f442 4200 	orr.w	r2, r2, #32768	; 0x8000
 8000a86:	609a      	str	r2, [r3, #8]
 8000a88:	f44f 5360 	mov.w	r3, #14336	; 0x3800
 8000a8c:	f2c4 0302 	movt	r3, #16386	; 0x4002
 8000a90:	f44f 5260 	mov.w	r2, #14336	; 0x3800
 8000a94:	f2c4 0202 	movt	r2, #16386	; 0x4002
 8000a98:	6892      	ldr	r2, [r2, #8]
 8000a9a:	f442 52a0 	orr.w	r2, r2, #5120	; 0x1400
 8000a9e:	609a      	str	r2, [r3, #8]
 8000aa0:	f44f 5360 	mov.w	r3, #14336	; 0x3800
 8000aa4:	f2c4 0302 	movt	r3, #16386	; 0x4002
 8000aa8:	f245 4219 	movw	r2, #21529	; 0x5419
 8000aac:	f2c0 7240 	movt	r2, #1856	; 0x740
 8000ab0:	605a      	str	r2, [r3, #4]
 8000ab2:	f44f 5360 	mov.w	r3, #14336	; 0x3800
 8000ab6:	f2c4 0302 	movt	r3, #16386	; 0x4002
 8000aba:	f44f 5260 	mov.w	r2, #14336	; 0x3800
 8000abe:	f2c4 0202 	movt	r2, #16386	; 0x4002
 8000ac2:	6812      	ldr	r2, [r2, #0]
 8000ac4:	f042 7280 	orr.w	r2, r2, #16777216	; 0x1000000
 8000ac8:	601a      	str	r2, [r3, #0]
 8000aca:	bf00      	nop
 8000acc:	f44f 5360 	mov.w	r3, #14336	; 0x3800
 8000ad0:	f2c4 0302 	movt	r3, #16386	; 0x4002
 8000ad4:	681b      	ldr	r3, [r3, #0]
 8000ad6:	f003 7300 	and.w	r3, r3, #33554432	; 0x2000000
 8000ada:	2b00      	cmp	r3, #0
 8000adc:	d0f6      	beq.n	8000acc <SetSysClock+0x118>
 8000ade:	f44f 5370 	mov.w	r3, #15360	; 0x3c00
 8000ae2:	f2c4 0302 	movt	r3, #16386	; 0x4002
 8000ae6:	f240 7205 	movw	r2, #1797	; 0x705
 8000aea:	601a      	str	r2, [r3, #0]
 8000aec:	f44f 5360 	mov.w	r3, #14336	; 0x3800
 8000af0:	f2c4 0302 	movt	r3, #16386	; 0x4002
 8000af4:	f44f 5260 	mov.w	r2, #14336	; 0x3800
 8000af8:	f2c4 0202 	movt	r2, #16386	; 0x4002
 8000afc:	6892      	ldr	r2, [r2, #8]
 8000afe:	f022 0203 	bic.w	r2, r2, #3
 8000b02:	609a      	str	r2, [r3, #8]
 8000b04:	f44f 5360 	mov.w	r3, #14336	; 0x3800
 8000b08:	f2c4 0302 	movt	r3, #16386	; 0x4002
 8000b0c:	f44f 5260 	mov.w	r2, #14336	; 0x3800
 8000b10:	f2c4 0202 	movt	r2, #16386	; 0x4002
 8000b14:	6892      	ldr	r2, [r2, #8]
 8000b16:	f042 0202 	orr.w	r2, r2, #2
 8000b1a:	609a      	str	r2, [r3, #8]
 8000b1c:	bf00      	nop
 8000b1e:	f44f 5360 	mov.w	r3, #14336	; 0x3800
 8000b22:	f2c4 0302 	movt	r3, #16386	; 0x4002
 8000b26:	689b      	ldr	r3, [r3, #8]
 8000b28:	f003 030c 	and.w	r3, r3, #12
 8000b2c:	2b08      	cmp	r3, #8
 8000b2e:	d1f6      	bne.n	8000b1e <SetSysClock+0x16a>
 8000b30:	f107 070c 	add.w	r7, r7, #12
 8000b34:	46bd      	mov	sp, r7
 8000b36:	bc80      	pop	{r7}
 8000b38:	4770      	bx	lr
 8000b3a:	bf00      	nop

08000b3c <SSD1963_Delay>:
 8000b3c:	b480      	push	{r7}
 8000b3e:	b085      	sub	sp, #20
 8000b40:	af00      	add	r7, sp, #0
 8000b42:	6078      	str	r0, [r7, #4]
 8000b44:	f04f 0300 	mov.w	r3, #0
 8000b48:	60fb      	str	r3, [r7, #12]
 8000b4a:	687a      	ldr	r2, [r7, #4]
 8000b4c:	f248 63a0 	movw	r3, #34464	; 0x86a0
 8000b50:	f2c0 0301 	movt	r3, #1
 8000b54:	fb03 f302 	mul.w	r3, r3, r2
 8000b58:	60fb      	str	r3, [r7, #12]
 8000b5a:	e003      	b.n	8000b64 <SSD1963_Delay+0x28>
 8000b5c:	68fb      	ldr	r3, [r7, #12]
 8000b5e:	f103 33ff 	add.w	r3, r3, #4294967295
 8000b62:	60fb      	str	r3, [r7, #12]
 8000b64:	68fb      	ldr	r3, [r7, #12]
 8000b66:	2b00      	cmp	r3, #0
 8000b68:	d1f8      	bne.n	8000b5c <SSD1963_Delay+0x20>
 8000b6a:	f107 0714 	add.w	r7, r7, #20
 8000b6e:	46bd      	mov	sp, r7
 8000b70:	bc80      	pop	{r7}
 8000b72:	4770      	bx	lr

08000b74 <SSD1963_Init>:
 8000b74:	b580      	push	{r7, lr}
 8000b76:	b082      	sub	sp, #8
 8000b78:	af02      	add	r7, sp, #8
 8000b7a:	f001 fbdf 	bl	800233c <SSD1963_LLD_Init>
 8000b7e:	f243 60f0 	movw	r0, #14064	; 0x36f0
 8000b82:	f2c2 0001 	movt	r0, #8193	; 0x2001
 8000b86:	f000 f981 	bl	8000e8c <SSD1963_GetDeviceDescriptorBlock>
 8000b8a:	f04f 0001 	mov.w	r0, #1
 8000b8e:	f001 fbfd 	bl	800238c <SSD1963_WriteCommand>
 8000b92:	f04f 000a 	mov.w	r0, #10
 8000b96:	f7ff ffd1 	bl	8000b3c <SSD1963_Delay>
 8000b9a:	f04f 00e2 	mov.w	r0, #226	; 0xe2
 8000b9e:	f001 fbf5 	bl	800238c <SSD1963_WriteCommand>
 8000ba2:	f04f 002c 	mov.w	r0, #44	; 0x2c
 8000ba6:	f001 fbff 	bl	80023a8 <SSD1963_WriteData>
 8000baa:	f04f 0002 	mov.w	r0, #2
 8000bae:	f001 fbfb 	bl	80023a8 <SSD1963_WriteData>
 8000bb2:	f04f 00a5 	mov.w	r0, #165	; 0xa5
 8000bb6:	f001 fbf7 	bl	80023a8 <SSD1963_WriteData>
 8000bba:	f04f 00e0 	mov.w	r0, #224	; 0xe0
 8000bbe:	f001 fbe5 	bl	800238c <SSD1963_WriteCommand>
 8000bc2:	f04f 0001 	mov.w	r0, #1
 8000bc6:	f001 fbef 	bl	80023a8 <SSD1963_WriteData>
 8000bca:	f04f 000a 	mov.w	r0, #10
 8000bce:	f7ff ffb5 	bl	8000b3c <SSD1963_Delay>
 8000bd2:	f04f 00e0 	mov.w	r0, #224	; 0xe0
 8000bd6:	f001 fbd9 	bl	800238c <SSD1963_WriteCommand>
 8000bda:	f04f 0003 	mov.w	r0, #3
 8000bde:	f001 fbe3 	bl	80023a8 <SSD1963_WriteData>
 8000be2:	f04f 000a 	mov.w	r0, #10
 8000be6:	f7ff ffa9 	bl	8000b3c <SSD1963_Delay>
 8000bea:	f04f 00b0 	mov.w	r0, #176	; 0xb0
 8000bee:	f001 fbcd 	bl	800238c <SSD1963_WriteCommand>
 8000bf2:	f04f 000c 	mov.w	r0, #12
 8000bf6:	f001 fbd7 	bl	80023a8 <SSD1963_WriteData>
 8000bfa:	f04f 0000 	mov.w	r0, #0
 8000bfe:	f001 fbd3 	bl	80023a8 <SSD1963_WriteData>
 8000c02:	f04f 0001 	mov.w	r0, #1
 8000c06:	f001 fbcf 	bl	80023a8 <SSD1963_WriteData>
 8000c0a:	f04f 003f 	mov.w	r0, #63	; 0x3f
 8000c0e:	f001 fbcb 	bl	80023a8 <SSD1963_WriteData>
 8000c12:	f04f 0000 	mov.w	r0, #0
 8000c16:	f001 fbc7 	bl	80023a8 <SSD1963_WriteData>
 8000c1a:	f04f 00ef 	mov.w	r0, #239	; 0xef
 8000c1e:	f001 fbc3 	bl	80023a8 <SSD1963_WriteData>
 8000c22:	f04f 0000 	mov.w	r0, #0
 8000c26:	f001 fbbf 	bl	80023a8 <SSD1963_WriteData>
 8000c2a:	f04f 00f0 	mov.w	r0, #240	; 0xf0
 8000c2e:	f001 fbad 	bl	800238c <SSD1963_WriteCommand>
 8000c32:	f04f 0003 	mov.w	r0, #3
 8000c36:	f001 fbb7 	bl	80023a8 <SSD1963_WriteData>
 8000c3a:	f04f 00e6 	mov.w	r0, #230	; 0xe6
 8000c3e:	f001 fba5 	bl	800238c <SSD1963_WriteCommand>
 8000c42:	f04f 0000 	mov.w	r0, #0
 8000c46:	f001 fbaf 	bl	80023a8 <SSD1963_WriteData>
 8000c4a:	f04f 00dc 	mov.w	r0, #220	; 0xdc
 8000c4e:	f001 fbab 	bl	80023a8 <SSD1963_WriteData>
 8000c52:	f04f 0098 	mov.w	r0, #152	; 0x98
 8000c56:	f001 fba7 	bl	80023a8 <SSD1963_WriteData>
 8000c5a:	f04f 00b4 	mov.w	r0, #180	; 0xb4
 8000c5e:	f001 fb95 	bl	800238c <SSD1963_WriteCommand>
 8000c62:	f04f 0001 	mov.w	r0, #1
 8000c66:	f001 fb9f 	bl	80023a8 <SSD1963_WriteData>
 8000c6a:	f04f 0098 	mov.w	r0, #152	; 0x98
 8000c6e:	f001 fb9b 	bl	80023a8 <SSD1963_WriteData>
 8000c72:	f04f 0000 	mov.w	r0, #0
 8000c76:	f001 fb97 	bl	80023a8 <SSD1963_WriteData>
 8000c7a:	f04f 0044 	mov.w	r0, #68	; 0x44
 8000c7e:	f001 fb93 	bl	80023a8 <SSD1963_WriteData>
 8000c82:	f04f 001c 	mov.w	r0, #28
 8000c86:	f001 fb8f 	bl	80023a8 <SSD1963_WriteData>
 8000c8a:	f04f 0000 	mov.w	r0, #0
 8000c8e:	f001 fb8b 	bl	80023a8 <SSD1963_WriteData>
 8000c92:	f04f 0000 	mov.w	r0, #0
 8000c96:	f001 fb87 	bl	80023a8 <SSD1963_WriteData>
 8000c9a:	f04f 0000 	mov.w	r0, #0
 8000c9e:	f001 fb83 	bl	80023a8 <SSD1963_WriteData>
 8000ca2:	f04f 00b6 	mov.w	r0, #182	; 0xb6
 8000ca6:	f001 fb71 	bl	800238c <SSD1963_WriteCommand>
 8000caa:	f04f 0001 	mov.w	r0, #1
 8000cae:	f001 fb7b 	bl	80023a8 <SSD1963_WriteData>
 8000cb2:	f04f 0008 	mov.w	r0, #8
 8000cb6:	f001 fb77 	bl	80023a8 <SSD1963_WriteData>
 8000cba:	f04f 0000 	mov.w	r0, #0
 8000cbe:	f001 fb73 	bl	80023a8 <SSD1963_WriteData>
 8000cc2:	f04f 0014 	mov.w	r0, #20
 8000cc6:	f001 fb6f 	bl	80023a8 <SSD1963_WriteData>
 8000cca:	f04f 0003 	mov.w	r0, #3
 8000cce:	f001 fb6b 	bl	80023a8 <SSD1963_WriteData>
 8000cd2:	f04f 0000 	mov.w	r0, #0
 8000cd6:	f001 fb67 	bl	80023a8 <SSD1963_WriteData>
 8000cda:	f04f 0000 	mov.w	r0, #0
 8000cde:	f001 fb63 	bl	80023a8 <SSD1963_WriteData>
 8000ce2:	f04f 00b8 	mov.w	r0, #184	; 0xb8
 8000ce6:	f001 fb51 	bl	800238c <SSD1963_WriteCommand>
 8000cea:	f04f 000f 	mov.w	r0, #15
 8000cee:	f001 fb5b 	bl	80023a8 <SSD1963_WriteData>
 8000cf2:	f04f 0001 	mov.w	r0, #1
 8000cf6:	f001 fb57 	bl	80023a8 <SSD1963_WriteData>
 8000cfa:	f04f 0300 	mov.w	r3, #0
 8000cfe:	9300      	str	r3, [sp, #0]
 8000d00:	f04f 0000 	mov.w	r0, #0
 8000d04:	f04f 0100 	mov.w	r1, #0
 8000d08:	f240 123f 	movw	r2, #319	; 0x13f
 8000d0c:	f04f 03ef 	mov.w	r3, #239	; 0xef
 8000d10:	f000 f84c 	bl	8000dac <SSD1963_FillArea>
 8000d14:	f000 f8b2 	bl	8000e7c <SSD1963_DisplayOn>
 8000d18:	46bd      	mov	sp, r7
 8000d1a:	bd80      	pop	{r7, pc}

08000d1c <SSD1963_SetArea>:
 8000d1c:	b580      	push	{r7, lr}
 8000d1e:	b082      	sub	sp, #8
 8000d20:	af00      	add	r7, sp, #0
 8000d22:	80f8      	strh	r0, [r7, #6]
 8000d24:	80b9      	strh	r1, [r7, #4]
 8000d26:	807a      	strh	r2, [r7, #2]
 8000d28:	803b      	strh	r3, [r7, #0]
 8000d2a:	f04f 002a 	mov.w	r0, #42	; 0x2a
 8000d2e:	f001 fb2d 	bl	800238c <SSD1963_WriteCommand>
 8000d32:	88fb      	ldrh	r3, [r7, #6]
 8000d34:	ea4f 2313 	mov.w	r3, r3, lsr #8
 8000d38:	b29b      	uxth	r3, r3
 8000d3a:	4618      	mov	r0, r3
 8000d3c:	f001 fb34 	bl	80023a8 <SSD1963_WriteData>
 8000d40:	88fb      	ldrh	r3, [r7, #6]
 8000d42:	b2db      	uxtb	r3, r3
 8000d44:	b29b      	uxth	r3, r3
 8000d46:	4618      	mov	r0, r3
 8000d48:	f001 fb2e 	bl	80023a8 <SSD1963_WriteData>
 8000d4c:	887b      	ldrh	r3, [r7, #2]
 8000d4e:	ea4f 2313 	mov.w	r3, r3, lsr #8
 8000d52:	b29b      	uxth	r3, r3
 8000d54:	4618      	mov	r0, r3
 8000d56:	f001 fb27 	bl	80023a8 <SSD1963_WriteData>
 8000d5a:	887b      	ldrh	r3, [r7, #2]
 8000d5c:	b2db      	uxtb	r3, r3
 8000d5e:	b29b      	uxth	r3, r3
 8000d60:	4618      	mov	r0, r3
 8000d62:	f001 fb21 	bl	80023a8 <SSD1963_WriteData>
 8000d66:	f04f 002b 	mov.w	r0, #43	; 0x2b
 8000d6a:	f001 fb0f 	bl	800238c <SSD1963_WriteCommand>
 8000d6e:	88bb      	ldrh	r3, [r7, #4]
 8000d70:	ea4f 2313 	mov.w	r3, r3, lsr #8
 8000d74:	b29b      	uxth	r3, r3
 8000d76:	4618      	mov	r0, r3
 8000d78:	f001 fb16 	bl	80023a8 <SSD1963_WriteData>
 8000d7c:	88bb      	ldrh	r3, [r7, #4]
 8000d7e:	b2db      	uxtb	r3, r3
 8000d80:	b29b      	uxth	r3, r3
 8000d82:	4618      	mov	r0, r3
 8000d84:	f001 fb10 	bl	80023a8 <SSD1963_WriteData>
 8000d88:	883b      	ldrh	r3, [r7, #0]
 8000d8a:	ea4f 2313 	mov.w	r3, r3, lsr #8
 8000d8e:	b29b      	uxth	r3, r3
 8000d90:	4618      	mov	r0, r3
 8000d92:	f001 fb09 	bl	80023a8 <SSD1963_WriteData>
 8000d96:	883b      	ldrh	r3, [r7, #0]
 8000d98:	b2db      	uxtb	r3, r3
 8000d9a:	b29b      	uxth	r3, r3
 8000d9c:	4618      	mov	r0, r3
 8000d9e:	f001 fb03 	bl	80023a8 <SSD1963_WriteData>
 8000da2:	f107 0708 	add.w	r7, r7, #8
 8000da6:	46bd      	mov	sp, r7
 8000da8:	bd80      	pop	{r7, pc}
 8000daa:	bf00      	nop

08000dac <SSD1963_FillArea>:
 8000dac:	b580      	push	{r7, lr}
 8000dae:	b084      	sub	sp, #16
 8000db0:	af00      	add	r7, sp, #0
 8000db2:	80f8      	strh	r0, [r7, #6]
 8000db4:	80b9      	strh	r1, [r7, #4]
 8000db6:	807a      	strh	r2, [r7, #2]
 8000db8:	803b      	strh	r3, [r7, #0]
 8000dba:	88f8      	ldrh	r0, [r7, #6]
 8000dbc:	88b9      	ldrh	r1, [r7, #4]
 8000dbe:	887a      	ldrh	r2, [r7, #2]
 8000dc0:	883b      	ldrh	r3, [r7, #0]
 8000dc2:	f7ff ffab 	bl	8000d1c <SSD1963_SetArea>
 8000dc6:	f04f 002c 	mov.w	r0, #44	; 0x2c
 8000dca:	f001 fadf 	bl	800238c <SSD1963_WriteCommand>
 8000dce:	f04f 0300 	mov.w	r3, #0
 8000dd2:	60fb      	str	r3, [r7, #12]
 8000dd4:	e007      	b.n	8000de6 <SSD1963_FillArea+0x3a>
 8000dd6:	8b3b      	ldrh	r3, [r7, #24]
 8000dd8:	4618      	mov	r0, r3
 8000dda:	f001 fae5 	bl	80023a8 <SSD1963_WriteData>
 8000dde:	68fb      	ldr	r3, [r7, #12]
 8000de0:	f103 0301 	add.w	r3, r3, #1
 8000de4:	60fb      	str	r3, [r7, #12]
 8000de6:	887a      	ldrh	r2, [r7, #2]
 8000de8:	88fb      	ldrh	r3, [r7, #6]
 8000dea:	1ad3      	subs	r3, r2, r3
 8000dec:	f103 0301 	add.w	r3, r3, #1
 8000df0:	8839      	ldrh	r1, [r7, #0]
 8000df2:	88ba      	ldrh	r2, [r7, #4]
 8000df4:	1a8a      	subs	r2, r1, r2
 8000df6:	f102 0201 	add.w	r2, r2, #1
 8000dfa:	fb02 f303 	mul.w	r3, r2, r3
 8000dfe:	461a      	mov	r2, r3
 8000e00:	68fb      	ldr	r3, [r7, #12]
 8000e02:	429a      	cmp	r2, r3
 8000e04:	d8e7      	bhi.n	8000dd6 <SSD1963_FillArea+0x2a>
 8000e06:	f107 0710 	add.w	r7, r7, #16
 8000e0a:	46bd      	mov	sp, r7
 8000e0c:	bd80      	pop	{r7, pc}
 8000e0e:	bf00      	nop

08000e10 <SSD1963_WriteArea>:
 8000e10:	b580      	push	{r7, lr}
 8000e12:	b084      	sub	sp, #16
 8000e14:	af00      	add	r7, sp, #0
 8000e16:	80f8      	strh	r0, [r7, #6]
 8000e18:	80b9      	strh	r1, [r7, #4]
 8000e1a:	807a      	strh	r2, [r7, #2]
 8000e1c:	803b      	strh	r3, [r7, #0]
 8000e1e:	88f8      	ldrh	r0, [r7, #6]
 8000e20:	88b9      	ldrh	r1, [r7, #4]
 8000e22:	887a      	ldrh	r2, [r7, #2]
 8000e24:	883b      	ldrh	r3, [r7, #0]
 8000e26:	f7ff ff79 	bl	8000d1c <SSD1963_SetArea>
 8000e2a:	f04f 002c 	mov.w	r0, #44	; 0x2c
 8000e2e:	f001 faad 	bl	800238c <SSD1963_WriteCommand>
 8000e32:	f04f 0300 	mov.w	r3, #0
 8000e36:	60fb      	str	r3, [r7, #12]
 8000e38:	e00c      	b.n	8000e54 <SSD1963_WriteArea+0x44>
 8000e3a:	69bb      	ldr	r3, [r7, #24]
 8000e3c:	881b      	ldrh	r3, [r3, #0]
 8000e3e:	69ba      	ldr	r2, [r7, #24]
 8000e40:	f102 0202 	add.w	r2, r2, #2
 8000e44:	61ba      	str	r2, [r7, #24]
 8000e46:	4618      	mov	r0, r3
 8000e48:	f001 faae 	bl	80023a8 <SSD1963_WriteData>
 8000e4c:	68fb      	ldr	r3, [r7, #12]
 8000e4e:	f103 0301 	add.w	r3, r3, #1
 8000e52:	60fb      	str	r3, [r7, #12]
 8000e54:	887a      	ldrh	r2, [r7, #2]
 8000e56:	88fb      	ldrh	r3, [r7, #6]
 8000e58:	1ad3      	subs	r3, r2, r3
 8000e5a:	f103 0301 	add.w	r3, r3, #1
 8000e5e:	8839      	ldrh	r1, [r7, #0]
 8000e60:	88ba      	ldrh	r2, [r7, #4]
 8000e62:	1a8a      	subs	r2, r1, r2
 8000e64:	f102 0201 	add.w	r2, r2, #1
 8000e68:	fb02 f303 	mul.w	r3, r2, r3
 8000e6c:	461a      	mov	r2, r3
 8000e6e:	68fb      	ldr	r3, [r7, #12]
 8000e70:	429a      	cmp	r2, r3
 8000e72:	d8e2      	bhi.n	8000e3a <SSD1963_WriteArea+0x2a>
 8000e74:	f107 0710 	add.w	r7, r7, #16
 8000e78:	46bd      	mov	sp, r7
 8000e7a:	bd80      	pop	{r7, pc}

08000e7c <SSD1963_DisplayOn>:
 8000e7c:	b580      	push	{r7, lr}
 8000e7e:	af00      	add	r7, sp, #0
 8000e80:	f04f 0029 	mov.w	r0, #41	; 0x29
 8000e84:	f001 fa82 	bl	800238c <SSD1963_WriteCommand>
 8000e88:	bd80      	pop	{r7, pc}
 8000e8a:	bf00      	nop

08000e8c <SSD1963_GetDeviceDescriptorBlock>:
 8000e8c:	b590      	push	{r4, r7, lr}
 8000e8e:	b083      	sub	sp, #12
 8000e90:	af00      	add	r7, sp, #0
 8000e92:	6078      	str	r0, [r7, #4]
 8000e94:	f04f 00a1 	mov.w	r0, #161	; 0xa1
 8000e98:	f001 fa78 	bl	800238c <SSD1963_WriteCommand>
 8000e9c:	f001 fa92 	bl	80023c4 <SSD1963_ReadData>
 8000ea0:	4603      	mov	r3, r0
 8000ea2:	461a      	mov	r2, r3
 8000ea4:	687b      	ldr	r3, [r7, #4]
 8000ea6:	801a      	strh	r2, [r3, #0]
 8000ea8:	687b      	ldr	r3, [r7, #4]
 8000eaa:	f103 0402 	add.w	r4, r3, #2
 8000eae:	f001 fa89 	bl	80023c4 <SSD1963_ReadData>
 8000eb2:	4603      	mov	r3, r0
 8000eb4:	8023      	strh	r3, [r4, #0]
 8000eb6:	687b      	ldr	r3, [r7, #4]
 8000eb8:	f103 0404 	add.w	r4, r3, #4
 8000ebc:	f001 fa82 	bl	80023c4 <SSD1963_ReadData>
 8000ec0:	4603      	mov	r3, r0
 8000ec2:	8023      	strh	r3, [r4, #0]
 8000ec4:	f107 070c 	add.w	r7, r7, #12
 8000ec8:	46bd      	mov	sp, r7
 8000eca:	bd90      	pop	{r4, r7, pc}

08000ecc <CARME_Init>:
 8000ecc:	b580      	push	{r7, lr}
 8000ece:	af00      	add	r7, sp, #0
 8000ed0:	f04f 0001 	mov.w	r0, #1
 8000ed4:	f04f 0101 	mov.w	r1, #1
 8000ed8:	f7ff fbe6 	bl	80006a8 <RCC_AHB1PeriphClockCmd>
 8000edc:	f04f 0002 	mov.w	r0, #2
 8000ee0:	f04f 0101 	mov.w	r1, #1
 8000ee4:	f7ff fbe0 	bl	80006a8 <RCC_AHB1PeriphClockCmd>
 8000ee8:	f04f 0004 	mov.w	r0, #4
 8000eec:	f04f 0101 	mov.w	r1, #1
 8000ef0:	f7ff fbda 	bl	80006a8 <RCC_AHB1PeriphClockCmd>
 8000ef4:	f04f 0008 	mov.w	r0, #8
 8000ef8:	f04f 0101 	mov.w	r1, #1
 8000efc:	f7ff fbd4 	bl	80006a8 <RCC_AHB1PeriphClockCmd>
 8000f00:	f04f 0010 	mov.w	r0, #16
 8000f04:	f04f 0101 	mov.w	r1, #1
 8000f08:	f7ff fbce 	bl	80006a8 <RCC_AHB1PeriphClockCmd>
 8000f0c:	f04f 0020 	mov.w	r0, #32
 8000f10:	f04f 0101 	mov.w	r1, #1
 8000f14:	f7ff fbc8 	bl	80006a8 <RCC_AHB1PeriphClockCmd>
 8000f18:	f04f 0040 	mov.w	r0, #64	; 0x40
 8000f1c:	f04f 0101 	mov.w	r1, #1
 8000f20:	f7ff fbc2 	bl	80006a8 <RCC_AHB1PeriphClockCmd>
 8000f24:	f04f 0080 	mov.w	r0, #128	; 0x80
 8000f28:	f04f 0101 	mov.w	r1, #1
 8000f2c:	f7ff fbbc 	bl	80006a8 <RCC_AHB1PeriphClockCmd>
 8000f30:	f44f 7080 	mov.w	r0, #256	; 0x100
 8000f34:	f04f 0101 	mov.w	r1, #1
 8000f38:	f7ff fbb6 	bl	80006a8 <RCC_AHB1PeriphClockCmd>
 8000f3c:	f44f 4080 	mov.w	r0, #16384	; 0x4000
 8000f40:	f04f 0101 	mov.w	r1, #1
 8000f44:	f7ff fc04 	bl	8000750 <RCC_APB2PeriphClockCmd>
 8000f48:	f04f 0000 	mov.w	r0, #0
 8000f4c:	f2c4 0002 	movt	r0, #16386	; 0x4002
 8000f50:	f000 fe1a 	bl	8001b88 <GPIO_DeInit>
 8000f54:	f44f 6080 	mov.w	r0, #1024	; 0x400
 8000f58:	f2c4 0002 	movt	r0, #16386	; 0x4002
 8000f5c:	f000 fe14 	bl	8001b88 <GPIO_DeInit>
 8000f60:	f44f 6000 	mov.w	r0, #2048	; 0x800
 8000f64:	f2c4 0002 	movt	r0, #16386	; 0x4002
 8000f68:	f000 fe0e 	bl	8001b88 <GPIO_DeInit>
 8000f6c:	f44f 6040 	mov.w	r0, #3072	; 0xc00
 8000f70:	f2c4 0002 	movt	r0, #16386	; 0x4002
 8000f74:	f000 fe08 	bl	8001b88 <GPIO_DeInit>
 8000f78:	f44f 5080 	mov.w	r0, #4096	; 0x1000
 8000f7c:	f2c4 0002 	movt	r0, #16386	; 0x4002
 8000f80:	f000 fe02 	bl	8001b88 <GPIO_DeInit>
 8000f84:	f44f 50a0 	mov.w	r0, #5120	; 0x1400
 8000f88:	f2c4 0002 	movt	r0, #16386	; 0x4002
 8000f8c:	f000 fdfc 	bl	8001b88 <GPIO_DeInit>
 8000f90:	f44f 50c0 	mov.w	r0, #6144	; 0x1800
 8000f94:	f2c4 0002 	movt	r0, #16386	; 0x4002
 8000f98:	f000 fdf6 	bl	8001b88 <GPIO_DeInit>
 8000f9c:	f44f 50e0 	mov.w	r0, #7168	; 0x1c00
 8000fa0:	f2c4 0002 	movt	r0, #16386	; 0x4002
 8000fa4:	f000 fdf0 	bl	8001b88 <GPIO_DeInit>
 8000fa8:	f44f 5000 	mov.w	r0, #8192	; 0x2000
 8000fac:	f2c4 0002 	movt	r0, #16386	; 0x4002
 8000fb0:	f000 fdea 	bl	8001b88 <GPIO_DeInit>
 8000fb4:	f000 f8e6 	bl	8001184 <CARME_AGPIO_Init>
 8000fb8:	f000 f804 	bl	8000fc4 <CARME_FSMC_GPIO_Init>
 8000fbc:	f000 f832 	bl	8001024 <CARME_FSMC_Init>
 8000fc0:	bd80      	pop	{r7, pc}
 8000fc2:	bf00      	nop

08000fc4 <CARME_FSMC_GPIO_Init>:
 8000fc4:	b580      	push	{r7, lr}
 8000fc6:	b0ec      	sub	sp, #432	; 0x1b0
 8000fc8:	af00      	add	r7, sp, #0
 8000fca:	f107 0208 	add.w	r2, r7, #8
 8000fce:	f644 6350 	movw	r3, #20048	; 0x4e50
 8000fd2:	f6c0 0300 	movt	r3, #2048	; 0x800
 8000fd6:	4611      	mov	r1, r2
 8000fd8:	461a      	mov	r2, r3
 8000fda:	f44f 73d4 	mov.w	r3, #424	; 0x1a8
 8000fde:	4608      	mov	r0, r1
 8000fe0:	4611      	mov	r1, r2
 8000fe2:	461a      	mov	r2, r3
 8000fe4:	f003 fed1 	bl	8004d8a <memcpy>
 8000fe8:	463b      	mov	r3, r7
 8000fea:	f04f 0202 	mov.w	r2, #2
 8000fee:	715a      	strb	r2, [r3, #5]
 8000ff0:	463b      	mov	r3, r7
 8000ff2:	f04f 0202 	mov.w	r2, #2
 8000ff6:	711a      	strb	r2, [r3, #4]
 8000ff8:	463b      	mov	r3, r7
 8000ffa:	f04f 0202 	mov.w	r2, #2
 8000ffe:	71da      	strb	r2, [r3, #7]
 8001000:	463b      	mov	r3, r7
 8001002:	f04f 0200 	mov.w	r2, #0
 8001006:	719a      	strb	r2, [r3, #6]
 8001008:	f107 0208 	add.w	r2, r7, #8
 800100c:	463b      	mov	r3, r7
 800100e:	4610      	mov	r0, r2
 8001010:	4619      	mov	r1, r3
 8001012:	f04f 0235 	mov.w	r2, #53	; 0x35
 8001016:	f000 f8cb 	bl	80011b0 <CARME_GPIO_Init>
 800101a:	f507 77d8 	add.w	r7, r7, #432	; 0x1b0
 800101e:	46bd      	mov	sp, r7
 8001020:	bd80      	pop	{r7, pc}
 8001022:	bf00      	nop

08001024 <CARME_FSMC_Init>:
 8001024:	b580      	push	{r7, lr}
 8001026:	b096      	sub	sp, #88	; 0x58
 8001028:	af00      	add	r7, sp, #0
 800102a:	f04f 0001 	mov.w	r0, #1
 800102e:	f04f 0101 	mov.w	r1, #1
 8001032:	f7ff fb63 	bl	80006fc <RCC_AHB3PeriphClockCmd>
 8001036:	f04f 0000 	mov.w	r0, #0
 800103a:	f000 ffb5 	bl	8001fa8 <FSMC_NORSRAMDeInit>
 800103e:	f04f 0002 	mov.w	r0, #2
 8001042:	f000 ffb1 	bl	8001fa8 <FSMC_NORSRAMDeInit>
 8001046:	f04f 0004 	mov.w	r0, #4
 800104a:	f000 ffad 	bl	8001fa8 <FSMC_NORSRAMDeInit>
 800104e:	f04f 0006 	mov.w	r0, #6
 8001052:	f000 ffa9 	bl	8001fa8 <FSMC_NORSRAMDeInit>
 8001056:	463b      	mov	r3, r7
 8001058:	653b      	str	r3, [r7, #80]	; 0x50
 800105a:	463b      	mov	r3, r7
 800105c:	657b      	str	r3, [r7, #84]	; 0x54
 800105e:	f04f 0305 	mov.w	r3, #5
 8001062:	603b      	str	r3, [r7, #0]
 8001064:	f04f 0300 	mov.w	r3, #0
 8001068:	607b      	str	r3, [r7, #4]
 800106a:	f04f 0309 	mov.w	r3, #9
 800106e:	60bb      	str	r3, [r7, #8]
 8001070:	f04f 0300 	mov.w	r3, #0
 8001074:	60fb      	str	r3, [r7, #12]
 8001076:	f04f 0300 	mov.w	r3, #0
 800107a:	613b      	str	r3, [r7, #16]
 800107c:	f04f 0300 	mov.w	r3, #0
 8001080:	617b      	str	r3, [r7, #20]
 8001082:	f04f 0300 	mov.w	r3, #0
 8001086:	61bb      	str	r3, [r7, #24]
 8001088:	f04f 0304 	mov.w	r3, #4
 800108c:	61fb      	str	r3, [r7, #28]
 800108e:	f04f 0300 	mov.w	r3, #0
 8001092:	623b      	str	r3, [r7, #32]
 8001094:	f04f 0300 	mov.w	r3, #0
 8001098:	627b      	str	r3, [r7, #36]	; 0x24
 800109a:	f04f 0310 	mov.w	r3, #16
 800109e:	62bb      	str	r3, [r7, #40]	; 0x28
 80010a0:	f04f 0300 	mov.w	r3, #0
 80010a4:	62fb      	str	r3, [r7, #44]	; 0x2c
 80010a6:	f04f 0300 	mov.w	r3, #0
 80010aa:	633b      	str	r3, [r7, #48]	; 0x30
 80010ac:	f04f 0300 	mov.w	r3, #0
 80010b0:	637b      	str	r3, [r7, #52]	; 0x34
 80010b2:	f04f 0300 	mov.w	r3, #0
 80010b6:	63bb      	str	r3, [r7, #56]	; 0x38
 80010b8:	f04f 0300 	mov.w	r3, #0
 80010bc:	63fb      	str	r3, [r7, #60]	; 0x3c
 80010be:	f44f 5380 	mov.w	r3, #4096	; 0x1000
 80010c2:	643b      	str	r3, [r7, #64]	; 0x40
 80010c4:	f04f 0300 	mov.w	r3, #0
 80010c8:	647b      	str	r3, [r7, #68]	; 0x44
 80010ca:	f04f 0300 	mov.w	r3, #0
 80010ce:	64bb      	str	r3, [r7, #72]	; 0x48
 80010d0:	f04f 0300 	mov.w	r3, #0
 80010d4:	64fb      	str	r3, [r7, #76]	; 0x4c
 80010d6:	f107 031c 	add.w	r3, r7, #28
 80010da:	4618      	mov	r0, r3
 80010dc:	f000 ff92 	bl	8002004 <FSMC_NORSRAMInit>
 80010e0:	f04f 0004 	mov.w	r0, #4
 80010e4:	f04f 0101 	mov.w	r1, #1
 80010e8:	f001 f834 	bl	8002154 <FSMC_NORSRAMCmd>
 80010ec:	f04f 0301 	mov.w	r3, #1
 80010f0:	603b      	str	r3, [r7, #0]
 80010f2:	f04f 0308 	mov.w	r3, #8
 80010f6:	607b      	str	r3, [r7, #4]
 80010f8:	f04f 030f 	mov.w	r3, #15
 80010fc:	60bb      	str	r3, [r7, #8]
 80010fe:	f04f 0300 	mov.w	r3, #0
 8001102:	60fb      	str	r3, [r7, #12]
 8001104:	f04f 0300 	mov.w	r3, #0
 8001108:	613b      	str	r3, [r7, #16]
 800110a:	f04f 0305 	mov.w	r3, #5
 800110e:	617b      	str	r3, [r7, #20]
 8001110:	f04f 5340 	mov.w	r3, #805306368	; 0x30000000
 8001114:	61bb      	str	r3, [r7, #24]
 8001116:	f04f 0306 	mov.w	r3, #6
 800111a:	61fb      	str	r3, [r7, #28]
 800111c:	f04f 0300 	mov.w	r3, #0
 8001120:	623b      	str	r3, [r7, #32]
 8001122:	f04f 0300 	mov.w	r3, #0
 8001126:	627b      	str	r3, [r7, #36]	; 0x24
 8001128:	f04f 0310 	mov.w	r3, #16
 800112c:	62bb      	str	r3, [r7, #40]	; 0x28
 800112e:	f04f 0300 	mov.w	r3, #0
 8001132:	62fb      	str	r3, [r7, #44]	; 0x2c
 8001134:	f04f 0300 	mov.w	r3, #0
 8001138:	633b      	str	r3, [r7, #48]	; 0x30
 800113a:	f04f 0300 	mov.w	r3, #0
 800113e:	637b      	str	r3, [r7, #52]	; 0x34
 8001140:	f04f 0300 	mov.w	r3, #0
 8001144:	63bb      	str	r3, [r7, #56]	; 0x38
 8001146:	f04f 0300 	mov.w	r3, #0
 800114a:	63fb      	str	r3, [r7, #60]	; 0x3c
 800114c:	f44f 5380 	mov.w	r3, #4096	; 0x1000
 8001150:	643b      	str	r3, [r7, #64]	; 0x40
 8001152:	f04f 0300 	mov.w	r3, #0
 8001156:	647b      	str	r3, [r7, #68]	; 0x44
 8001158:	f44f 4380 	mov.w	r3, #16384	; 0x4000
 800115c:	64bb      	str	r3, [r7, #72]	; 0x48
 800115e:	f04f 0300 	mov.w	r3, #0
 8001162:	64fb      	str	r3, [r7, #76]	; 0x4c
 8001164:	f107 031c 	add.w	r3, r7, #28
 8001168:	4618      	mov	r0, r3
 800116a:	f000 ff4b 	bl	8002004 <FSMC_NORSRAMInit>
 800116e:	f04f 0006 	mov.w	r0, #6
 8001172:	f04f 0101 	mov.w	r1, #1
 8001176:	f000 ffed 	bl	8002154 <FSMC_NORSRAMCmd>
 800117a:	f107 0758 	add.w	r7, r7, #88	; 0x58
 800117e:	46bd      	mov	sp, r7
 8001180:	bd80      	pop	{r7, pc}
 8001182:	bf00      	nop

08001184 <CARME_AGPIO_Init>:
 8001184:	b580      	push	{r7, lr}
 8001186:	b082      	sub	sp, #8
 8001188:	af00      	add	r7, sp, #0
 800118a:	463b      	mov	r3, r7
 800118c:	4618      	mov	r0, r3
 800118e:	f000 fe81 	bl	8001e94 <GPIO_StructInit>
 8001192:	463b      	mov	r3, r7
 8001194:	f240 006c 	movw	r0, #108	; 0x6c
 8001198:	f2c2 0000 	movt	r0, #8192	; 0x2000
 800119c:	4619      	mov	r1, r3
 800119e:	f04f 0214 	mov.w	r2, #20
 80011a2:	f000 f805 	bl	80011b0 <CARME_GPIO_Init>
 80011a6:	f107 0708 	add.w	r7, r7, #8
 80011aa:	46bd      	mov	sp, r7
 80011ac:	bd80      	pop	{r7, pc}
 80011ae:	bf00      	nop

080011b0 <CARME_GPIO_Init>:
 80011b0:	b580      	push	{r7, lr}
 80011b2:	b086      	sub	sp, #24
 80011b4:	af00      	add	r7, sp, #0
 80011b6:	60f8      	str	r0, [r7, #12]
 80011b8:	60b9      	str	r1, [r7, #8]
 80011ba:	4613      	mov	r3, r2
 80011bc:	71fb      	strb	r3, [r7, #7]
 80011be:	f04f 0300 	mov.w	r3, #0
 80011c2:	75fb      	strb	r3, [r7, #23]
 80011c4:	e10f      	b.n	80013e6 <CARME_GPIO_Init+0x236>
 80011c6:	7dfb      	ldrb	r3, [r7, #23]
 80011c8:	ea4f 03c3 	mov.w	r3, r3, lsl #3
 80011cc:	68fa      	ldr	r2, [r7, #12]
 80011ce:	18d3      	adds	r3, r2, r3
 80011d0:	889b      	ldrh	r3, [r3, #4]
 80011d2:	461a      	mov	r2, r3
 80011d4:	68bb      	ldr	r3, [r7, #8]
 80011d6:	601a      	str	r2, [r3, #0]
 80011d8:	7dfb      	ldrb	r3, [r7, #23]
 80011da:	ea4f 03c3 	mov.w	r3, r3, lsl #3
 80011de:	68fa      	ldr	r2, [r7, #12]
 80011e0:	18d3      	adds	r3, r2, r3
 80011e2:	799a      	ldrb	r2, [r3, #6]
 80011e4:	68bb      	ldr	r3, [r7, #8]
 80011e6:	711a      	strb	r2, [r3, #4]
 80011e8:	7dfb      	ldrb	r3, [r7, #23]
 80011ea:	ea4f 03c3 	mov.w	r3, r3, lsl #3
 80011ee:	68fa      	ldr	r2, [r7, #12]
 80011f0:	18d3      	adds	r3, r2, r3
 80011f2:	681b      	ldr	r3, [r3, #0]
 80011f4:	4618      	mov	r0, r3
 80011f6:	68b9      	ldr	r1, [r7, #8]
 80011f8:	f000 fdaa 	bl	8001d50 <GPIO_Init>
 80011fc:	7dfb      	ldrb	r3, [r7, #23]
 80011fe:	ea4f 03c3 	mov.w	r3, r3, lsl #3
 8001202:	68fa      	ldr	r2, [r7, #12]
 8001204:	18d3      	adds	r3, r2, r3
 8001206:	799b      	ldrb	r3, [r3, #6]
 8001208:	2b02      	cmp	r3, #2
 800120a:	f040 80e8 	bne.w	80013de <CARME_GPIO_Init+0x22e>
 800120e:	7dfb      	ldrb	r3, [r7, #23]
 8001210:	ea4f 03c3 	mov.w	r3, r3, lsl #3
 8001214:	68fa      	ldr	r2, [r7, #12]
 8001216:	18d3      	adds	r3, r2, r3
 8001218:	6819      	ldr	r1, [r3, #0]
 800121a:	7dfb      	ldrb	r3, [r7, #23]
 800121c:	ea4f 03c3 	mov.w	r3, r3, lsl #3
 8001220:	68fa      	ldr	r2, [r7, #12]
 8001222:	18d3      	adds	r3, r2, r3
 8001224:	889b      	ldrh	r3, [r3, #4]
 8001226:	f003 0301 	and.w	r3, r3, #1
 800122a:	2b00      	cmp	r3, #0
 800122c:	f040 80cb 	bne.w	80013c6 <CARME_GPIO_Init+0x216>
 8001230:	7dfb      	ldrb	r3, [r7, #23]
 8001232:	ea4f 03c3 	mov.w	r3, r3, lsl #3
 8001236:	68fa      	ldr	r2, [r7, #12]
 8001238:	18d3      	adds	r3, r2, r3
 800123a:	889b      	ldrh	r3, [r3, #4]
 800123c:	f003 0302 	and.w	r3, r3, #2
 8001240:	2b00      	cmp	r3, #0
 8001242:	f040 80bd 	bne.w	80013c0 <CARME_GPIO_Init+0x210>
 8001246:	7dfb      	ldrb	r3, [r7, #23]
 8001248:	ea4f 03c3 	mov.w	r3, r3, lsl #3
 800124c:	68fa      	ldr	r2, [r7, #12]
 800124e:	18d3      	adds	r3, r2, r3
 8001250:	889b      	ldrh	r3, [r3, #4]
 8001252:	f003 0304 	and.w	r3, r3, #4
 8001256:	2b00      	cmp	r3, #0
 8001258:	f040 80af 	bne.w	80013ba <CARME_GPIO_Init+0x20a>
 800125c:	7dfb      	ldrb	r3, [r7, #23]
 800125e:	ea4f 03c3 	mov.w	r3, r3, lsl #3
 8001262:	68fa      	ldr	r2, [r7, #12]
 8001264:	18d3      	adds	r3, r2, r3
 8001266:	889b      	ldrh	r3, [r3, #4]
 8001268:	f003 0308 	and.w	r3, r3, #8
 800126c:	2b00      	cmp	r3, #0
 800126e:	f040 80a1 	bne.w	80013b4 <CARME_GPIO_Init+0x204>
 8001272:	7dfb      	ldrb	r3, [r7, #23]
 8001274:	ea4f 03c3 	mov.w	r3, r3, lsl #3
 8001278:	68fa      	ldr	r2, [r7, #12]
 800127a:	18d3      	adds	r3, r2, r3
 800127c:	889b      	ldrh	r3, [r3, #4]
 800127e:	f003 0310 	and.w	r3, r3, #16
 8001282:	2b00      	cmp	r3, #0
 8001284:	f040 8093 	bne.w	80013ae <CARME_GPIO_Init+0x1fe>
 8001288:	7dfb      	ldrb	r3, [r7, #23]
 800128a:	ea4f 03c3 	mov.w	r3, r3, lsl #3
 800128e:	68fa      	ldr	r2, [r7, #12]
 8001290:	18d3      	adds	r3, r2, r3
 8001292:	889b      	ldrh	r3, [r3, #4]
 8001294:	f003 0320 	and.w	r3, r3, #32
 8001298:	2b00      	cmp	r3, #0
 800129a:	f040 8085 	bne.w	80013a8 <CARME_GPIO_Init+0x1f8>
 800129e:	7dfb      	ldrb	r3, [r7, #23]
 80012a0:	ea4f 03c3 	mov.w	r3, r3, lsl #3
 80012a4:	68fa      	ldr	r2, [r7, #12]
 80012a6:	18d3      	adds	r3, r2, r3
 80012a8:	889b      	ldrh	r3, [r3, #4]
 80012aa:	f003 0340 	and.w	r3, r3, #64	; 0x40
 80012ae:	2b00      	cmp	r3, #0
 80012b0:	d177      	bne.n	80013a2 <CARME_GPIO_Init+0x1f2>
 80012b2:	7dfb      	ldrb	r3, [r7, #23]
 80012b4:	ea4f 03c3 	mov.w	r3, r3, lsl #3
 80012b8:	68fa      	ldr	r2, [r7, #12]
 80012ba:	18d3      	adds	r3, r2, r3
 80012bc:	889b      	ldrh	r3, [r3, #4]
 80012be:	f003 0380 	and.w	r3, r3, #128	; 0x80
 80012c2:	2b00      	cmp	r3, #0
 80012c4:	d16a      	bne.n	800139c <CARME_GPIO_Init+0x1ec>
 80012c6:	7dfb      	ldrb	r3, [r7, #23]
 80012c8:	ea4f 03c3 	mov.w	r3, r3, lsl #3
 80012cc:	68fa      	ldr	r2, [r7, #12]
 80012ce:	18d3      	adds	r3, r2, r3
 80012d0:	889b      	ldrh	r3, [r3, #4]
 80012d2:	f403 7380 	and.w	r3, r3, #256	; 0x100
 80012d6:	2b00      	cmp	r3, #0
 80012d8:	d15d      	bne.n	8001396 <CARME_GPIO_Init+0x1e6>
 80012da:	7dfb      	ldrb	r3, [r7, #23]
 80012dc:	ea4f 03c3 	mov.w	r3, r3, lsl #3
 80012e0:	68fa      	ldr	r2, [r7, #12]
 80012e2:	18d3      	adds	r3, r2, r3
 80012e4:	889b      	ldrh	r3, [r3, #4]
 80012e6:	f403 7300 	and.w	r3, r3, #512	; 0x200
 80012ea:	2b00      	cmp	r3, #0
 80012ec:	d150      	bne.n	8001390 <CARME_GPIO_Init+0x1e0>
 80012ee:	7dfb      	ldrb	r3, [r7, #23]
 80012f0:	ea4f 03c3 	mov.w	r3, r3, lsl #3
 80012f4:	68fa      	ldr	r2, [r7, #12]
 80012f6:	18d3      	adds	r3, r2, r3
 80012f8:	889b      	ldrh	r3, [r3, #4]
 80012fa:	f403 6380 	and.w	r3, r3, #1024	; 0x400
 80012fe:	2b00      	cmp	r3, #0
 8001300:	d143      	bne.n	800138a <CARME_GPIO_Init+0x1da>
 8001302:	7dfb      	ldrb	r3, [r7, #23]
 8001304:	ea4f 03c3 	mov.w	r3, r3, lsl #3
 8001308:	68fa      	ldr	r2, [r7, #12]
 800130a:	18d3      	adds	r3, r2, r3
 800130c:	889b      	ldrh	r3, [r3, #4]
 800130e:	f403 6300 	and.w	r3, r3, #2048	; 0x800
 8001312:	2b00      	cmp	r3, #0
 8001314:	d136      	bne.n	8001384 <CARME_GPIO_Init+0x1d4>
 8001316:	7dfb      	ldrb	r3, [r7, #23]
 8001318:	ea4f 03c3 	mov.w	r3, r3, lsl #3
 800131c:	68fa      	ldr	r2, [r7, #12]
 800131e:	18d3      	adds	r3, r2, r3
 8001320:	889b      	ldrh	r3, [r3, #4]
 8001322:	f403 5380 	and.w	r3, r3, #4096	; 0x1000
 8001326:	2b00      	cmp	r3, #0
 8001328:	d129      	bne.n	800137e <CARME_GPIO_Init+0x1ce>
 800132a:	7dfb      	ldrb	r3, [r7, #23]
 800132c:	ea4f 03c3 	mov.w	r3, r3, lsl #3
 8001330:	68fa      	ldr	r2, [r7, #12]
 8001332:	18d3      	adds	r3, r2, r3
 8001334:	889b      	ldrh	r3, [r3, #4]
 8001336:	f403 5300 	and.w	r3, r3, #8192	; 0x2000
 800133a:	2b00      	cmp	r3, #0
 800133c:	d11c      	bne.n	8001378 <CARME_GPIO_Init+0x1c8>
 800133e:	7dfb      	ldrb	r3, [r7, #23]
 8001340:	ea4f 03c3 	mov.w	r3, r3, lsl #3
 8001344:	68fa      	ldr	r2, [r7, #12]
 8001346:	18d3      	adds	r3, r2, r3
 8001348:	889b      	ldrh	r3, [r3, #4]
 800134a:	f403 4380 	and.w	r3, r3, #16384	; 0x4000
 800134e:	2b00      	cmp	r3, #0
 8001350:	d10f      	bne.n	8001372 <CARME_GPIO_Init+0x1c2>
 8001352:	7dfb      	ldrb	r3, [r7, #23]
 8001354:	ea4f 03c3 	mov.w	r3, r3, lsl #3
 8001358:	68fa      	ldr	r2, [r7, #12]
 800135a:	18d3      	adds	r3, r2, r3
 800135c:	889b      	ldrh	r3, [r3, #4]
 800135e:	b29b      	uxth	r3, r3
 8001360:	b21b      	sxth	r3, r3
 8001362:	2b00      	cmp	r3, #0
 8001364:	da02      	bge.n	800136c <CARME_GPIO_Init+0x1bc>
 8001366:	f04f 030f 	mov.w	r3, #15
 800136a:	e001      	b.n	8001370 <CARME_GPIO_Init+0x1c0>
 800136c:	f64f 73ff 	movw	r3, #65535	; 0xffff
 8001370:	e001      	b.n	8001376 <CARME_GPIO_Init+0x1c6>
 8001372:	f04f 030e 	mov.w	r3, #14
 8001376:	e001      	b.n	800137c <CARME_GPIO_Init+0x1cc>
 8001378:	f04f 030d 	mov.w	r3, #13
 800137c:	e001      	b.n	8001382 <CARME_GPIO_Init+0x1d2>
 800137e:	f04f 030c 	mov.w	r3, #12
 8001382:	e001      	b.n	8001388 <CARME_GPIO_Init+0x1d8>
 8001384:	f04f 030b 	mov.w	r3, #11
 8001388:	e001      	b.n	800138e <CARME_GPIO_Init+0x1de>
 800138a:	f04f 030a 	mov.w	r3, #10
 800138e:	e001      	b.n	8001394 <CARME_GPIO_Init+0x1e4>
 8001390:	f04f 0309 	mov.w	r3, #9
 8001394:	e001      	b.n	800139a <CARME_GPIO_Init+0x1ea>
 8001396:	f04f 0308 	mov.w	r3, #8
 800139a:	e001      	b.n	80013a0 <CARME_GPIO_Init+0x1f0>
 800139c:	f04f 0307 	mov.w	r3, #7
 80013a0:	e001      	b.n	80013a6 <CARME_GPIO_Init+0x1f6>
 80013a2:	f04f 0306 	mov.w	r3, #6
 80013a6:	e001      	b.n	80013ac <CARME_GPIO_Init+0x1fc>
 80013a8:	f04f 0305 	mov.w	r3, #5
 80013ac:	e001      	b.n	80013b2 <CARME_GPIO_Init+0x202>
 80013ae:	f04f 0304 	mov.w	r3, #4
 80013b2:	e001      	b.n	80013b8 <CARME_GPIO_Init+0x208>
 80013b4:	f04f 0303 	mov.w	r3, #3
 80013b8:	e001      	b.n	80013be <CARME_GPIO_Init+0x20e>
 80013ba:	f04f 0302 	mov.w	r3, #2
 80013be:	e001      	b.n	80013c4 <CARME_GPIO_Init+0x214>
 80013c0:	f04f 0301 	mov.w	r3, #1
 80013c4:	e001      	b.n	80013ca <CARME_GPIO_Init+0x21a>
 80013c6:	f04f 0300 	mov.w	r3, #0
 80013ca:	7dfa      	ldrb	r2, [r7, #23]
 80013cc:	ea4f 02c2 	mov.w	r2, r2, lsl #3
 80013d0:	68f8      	ldr	r0, [r7, #12]
 80013d2:	1882      	adds	r2, r0, r2
 80013d4:	79d2      	ldrb	r2, [r2, #7]
 80013d6:	4608      	mov	r0, r1
 80013d8:	4619      	mov	r1, r3
 80013da:	f000 fd91 	bl	8001f00 <GPIO_PinAFConfig>
 80013de:	7dfb      	ldrb	r3, [r7, #23]
 80013e0:	f103 0301 	add.w	r3, r3, #1
 80013e4:	75fb      	strb	r3, [r7, #23]
 80013e6:	7dfa      	ldrb	r2, [r7, #23]
 80013e8:	79fb      	ldrb	r3, [r7, #7]
 80013ea:	429a      	cmp	r2, r3
 80013ec:	f4ff aeeb 	bcc.w	80011c6 <CARME_GPIO_Init+0x16>
 80013f0:	f107 0718 	add.w	r7, r7, #24
 80013f4:	46bd      	mov	sp, r7
 80013f6:	bd80      	pop	{r7, pc}

080013f8 <CARME_AGPIO_Set>:
 80013f8:	b580      	push	{r7, lr}
 80013fa:	b084      	sub	sp, #16
 80013fc:	af00      	add	r7, sp, #0
 80013fe:	6078      	str	r0, [r7, #4]
 8001400:	6039      	str	r1, [r7, #0]
 8001402:	f04f 0300 	mov.w	r3, #0
 8001406:	73fb      	strb	r3, [r7, #15]
 8001408:	e031      	b.n	800146e <CARME_AGPIO_Set+0x76>
 800140a:	7bfb      	ldrb	r3, [r7, #15]
 800140c:	f04f 0201 	mov.w	r2, #1
 8001410:	fa02 f303 	lsl.w	r3, r2, r3
 8001414:	461a      	mov	r2, r3
 8001416:	683b      	ldr	r3, [r7, #0]
 8001418:	4013      	ands	r3, r2
 800141a:	2b00      	cmp	r3, #0
 800141c:	d023      	beq.n	8001466 <CARME_AGPIO_Set+0x6e>
 800141e:	7bfb      	ldrb	r3, [r7, #15]
 8001420:	f04f 0201 	mov.w	r2, #1
 8001424:	fa02 f303 	lsl.w	r3, r2, r3
 8001428:	461a      	mov	r2, r3
 800142a:	687b      	ldr	r3, [r7, #4]
 800142c:	4013      	ands	r3, r2
 800142e:	2b00      	cmp	r3, #0
 8001430:	bf0c      	ite	eq
 8001432:	2300      	moveq	r3, #0
 8001434:	2301      	movne	r3, #1
 8001436:	b2db      	uxtb	r3, r3
 8001438:	73bb      	strb	r3, [r7, #14]
 800143a:	7bfa      	ldrb	r2, [r7, #15]
 800143c:	f240 036c 	movw	r3, #108	; 0x6c
 8001440:	f2c2 0300 	movt	r3, #8192	; 0x2000
 8001444:	f853 1032 	ldr.w	r1, [r3, r2, lsl #3]
 8001448:	7bfb      	ldrb	r3, [r7, #15]
 800144a:	f240 026c 	movw	r2, #108	; 0x6c
 800144e:	f2c2 0200 	movt	r2, #8192	; 0x2000
 8001452:	ea4f 03c3 	mov.w	r3, r3, lsl #3
 8001456:	18d3      	adds	r3, r2, r3
 8001458:	889a      	ldrh	r2, [r3, #4]
 800145a:	7bbb      	ldrb	r3, [r7, #14]
 800145c:	4608      	mov	r0, r1
 800145e:	4611      	mov	r1, r2
 8001460:	461a      	mov	r2, r3
 8001462:	f000 fd35 	bl	8001ed0 <GPIO_WriteBit>
 8001466:	7bfb      	ldrb	r3, [r7, #15]
 8001468:	f103 0301 	add.w	r3, r3, #1
 800146c:	73fb      	strb	r3, [r7, #15]
 800146e:	7bfb      	ldrb	r3, [r7, #15]
 8001470:	2b13      	cmp	r3, #19
 8001472:	d9ca      	bls.n	800140a <CARME_AGPIO_Set+0x12>
 8001474:	f107 0710 	add.w	r7, r7, #16
 8001478:	46bd      	mov	sp, r7
 800147a:	bd80      	pop	{r7, pc}

0800147c <CARME_LED_Red_Set>:
 800147c:	b580      	push	{r7, lr}
 800147e:	af00      	add	r7, sp, #0
 8001480:	f44f 2000 	mov.w	r0, #524288	; 0x80000
 8001484:	f44f 2100 	mov.w	r1, #524288	; 0x80000
 8001488:	f7ff ffb6 	bl	80013f8 <CARME_AGPIO_Set>
 800148c:	bd80      	pop	{r7, pc}
 800148e:	bf00      	nop

08001490 <CARME_LED_Red_Reset>:
 8001490:	b580      	push	{r7, lr}
 8001492:	af00      	add	r7, sp, #0
 8001494:	f04f 0000 	mov.w	r0, #0
 8001498:	f44f 2100 	mov.w	r1, #524288	; 0x80000
 800149c:	f7ff ffac 	bl	80013f8 <CARME_AGPIO_Set>
 80014a0:	bd80      	pop	{r7, pc}
 80014a2:	bf00      	nop

080014a4 <CARME_CAN_Write_Register>:
 80014a4:	b480      	push	{r7}
 80014a6:	b083      	sub	sp, #12
 80014a8:	af00      	add	r7, sp, #0
 80014aa:	6078      	str	r0, [r7, #4]
 80014ac:	460b      	mov	r3, r1
 80014ae:	70fb      	strb	r3, [r7, #3]
 80014b0:	f240 130c 	movw	r3, #268	; 0x10c
 80014b4:	f2c2 0300 	movt	r3, #8192	; 0x2000
 80014b8:	681b      	ldr	r3, [r3, #0]
 80014ba:	687a      	ldr	r2, [r7, #4]
 80014bc:	b2d2      	uxtb	r2, r2
 80014be:	701a      	strb	r2, [r3, #0]
 80014c0:	f240 1310 	movw	r3, #272	; 0x110
 80014c4:	f2c2 0300 	movt	r3, #8192	; 0x2000
 80014c8:	681b      	ldr	r3, [r3, #0]
 80014ca:	78fa      	ldrb	r2, [r7, #3]
 80014cc:	701a      	strb	r2, [r3, #0]
 80014ce:	f107 070c 	add.w	r7, r7, #12
 80014d2:	46bd      	mov	sp, r7
 80014d4:	bc80      	pop	{r7}
 80014d6:	4770      	bx	lr

080014d8 <CARME_CAN_Read_Register>:
 80014d8:	b480      	push	{r7}
 80014da:	b083      	sub	sp, #12
 80014dc:	af00      	add	r7, sp, #0
 80014de:	6078      	str	r0, [r7, #4]
 80014e0:	f240 130c 	movw	r3, #268	; 0x10c
 80014e4:	f2c2 0300 	movt	r3, #8192	; 0x2000
 80014e8:	681b      	ldr	r3, [r3, #0]
 80014ea:	687a      	ldr	r2, [r7, #4]
 80014ec:	b2d2      	uxtb	r2, r2
 80014ee:	701a      	strb	r2, [r3, #0]
 80014f0:	f240 1310 	movw	r3, #272	; 0x110
 80014f4:	f2c2 0300 	movt	r3, #8192	; 0x2000
 80014f8:	681b      	ldr	r3, [r3, #0]
 80014fa:	781b      	ldrb	r3, [r3, #0]
 80014fc:	b2db      	uxtb	r3, r3
 80014fe:	4618      	mov	r0, r3
 8001500:	f107 070c 	add.w	r7, r7, #12
 8001504:	46bd      	mov	sp, r7
 8001506:	bc80      	pop	{r7}
 8001508:	4770      	bx	lr
 800150a:	bf00      	nop

0800150c <CARME_CAN_InitSTM>:
 800150c:	b580      	push	{r7, lr}
 800150e:	b086      	sub	sp, #24
 8001510:	af00      	add	r7, sp, #0
 8001512:	f107 0310 	add.w	r3, r7, #16
 8001516:	4618      	mov	r0, r3
 8001518:	f000 fcbc 	bl	8001e94 <GPIO_StructInit>
 800151c:	f44f 7380 	mov.w	r3, #256	; 0x100
 8001520:	613b      	str	r3, [r7, #16]
 8001522:	f04f 0300 	mov.w	r3, #0
 8001526:	753b      	strb	r3, [r7, #20]
 8001528:	f107 0310 	add.w	r3, r7, #16
 800152c:	f44f 5000 	mov.w	r0, #8192	; 0x2000
 8001530:	f2c4 0002 	movt	r0, #16386	; 0x4002
 8001534:	4619      	mov	r1, r3
 8001536:	f000 fc0b 	bl	8001d50 <GPIO_Init>
 800153a:	f04f 0008 	mov.w	r0, #8
 800153e:	f04f 0108 	mov.w	r1, #8
 8001542:	f000 fac9 	bl	8001ad8 <SYSCFG_EXTILineConfig>
 8001546:	f44f 7380 	mov.w	r3, #256	; 0x100
 800154a:	60bb      	str	r3, [r7, #8]
 800154c:	f04f 0300 	mov.w	r3, #0
 8001550:	733b      	strb	r3, [r7, #12]
 8001552:	f04f 030c 	mov.w	r3, #12
 8001556:	737b      	strb	r3, [r7, #13]
 8001558:	f04f 0301 	mov.w	r3, #1
 800155c:	73bb      	strb	r3, [r7, #14]
 800155e:	f107 0308 	add.w	r3, r7, #8
 8001562:	4618      	mov	r0, r3
 8001564:	f000 fe20 	bl	80021a8 <EXTI_Init>
 8001568:	f04f 0317 	mov.w	r3, #23
 800156c:	713b      	strb	r3, [r7, #4]
 800156e:	f04f 030f 	mov.w	r3, #15
 8001572:	717b      	strb	r3, [r7, #5]
 8001574:	f04f 030f 	mov.w	r3, #15
 8001578:	71bb      	strb	r3, [r7, #6]
 800157a:	f04f 0301 	mov.w	r3, #1
 800157e:	71fb      	strb	r3, [r7, #7]
 8001580:	f107 0304 	add.w	r3, r7, #4
 8001584:	4618      	mov	r0, r3
 8001586:	f7ff f94b 	bl	8000820 <NVIC_Init>
 800158a:	f107 0718 	add.w	r7, r7, #24
 800158e:	46bd      	mov	sp, r7
 8001590:	bd80      	pop	{r7, pc}
 8001592:	bf00      	nop

08001594 <CARME_CAN_Init>:
 8001594:	b580      	push	{r7, lr}
 8001596:	b084      	sub	sp, #16
 8001598:	af00      	add	r7, sp, #0
 800159a:	6078      	str	r0, [r7, #4]
 800159c:	460b      	mov	r3, r1
 800159e:	70fb      	strb	r3, [r7, #3]
 80015a0:	f640 1048 	movw	r0, #2376	; 0x948
 80015a4:	f2c2 0000 	movt	r0, #8192	; 0x2000
 80015a8:	f04f 0100 	mov.w	r1, #0
 80015ac:	f04f 0220 	mov.w	r2, #32
 80015b0:	f003 fbf6 	bl	8004da0 <memset>
 80015b4:	f7ff ffaa 	bl	800150c <CARME_CAN_InitSTM>
 80015b8:	f04f 001f 	mov.w	r0, #31
 80015bc:	f04f 01c0 	mov.w	r1, #192	; 0xc0
 80015c0:	f7ff ff70 	bl	80014a4 <CARME_CAN_Write_Register>
 80015c4:	f04f 0008 	mov.w	r0, #8
 80015c8:	f04f 011a 	mov.w	r1, #26
 80015cc:	f7ff ff6a 	bl	80014a4 <CARME_CAN_Write_Register>
 80015d0:	6878      	ldr	r0, [r7, #4]
 80015d2:	f000 fa33 	bl	8001a3c <CARME_CAN_SetBaudrate>
 80015d6:	f04f 0300 	mov.w	r3, #0
 80015da:	73fb      	strb	r3, [r7, #15]
 80015dc:	e013      	b.n	8001606 <CARME_CAN_Init+0x72>
 80015de:	7bfb      	ldrb	r3, [r7, #15]
 80015e0:	f103 0310 	add.w	r3, r3, #16
 80015e4:	4618      	mov	r0, r3
 80015e6:	f04f 0100 	mov.w	r1, #0
 80015ea:	f7ff ff5b 	bl	80014a4 <CARME_CAN_Write_Register>
 80015ee:	7bfb      	ldrb	r3, [r7, #15]
 80015f0:	f103 0314 	add.w	r3, r3, #20
 80015f4:	4618      	mov	r0, r3
 80015f6:	f04f 01ff 	mov.w	r1, #255	; 0xff
 80015fa:	f7ff ff53 	bl	80014a4 <CARME_CAN_Write_Register>
 80015fe:	7bfb      	ldrb	r3, [r7, #15]
 8001600:	f103 0301 	add.w	r3, r3, #1
 8001604:	73fb      	strb	r3, [r7, #15]
 8001606:	7bfb      	ldrb	r3, [r7, #15]
 8001608:	2b03      	cmp	r3, #3
 800160a:	d9e8      	bls.n	80015de <CARME_CAN_Init+0x4a>
 800160c:	f04f 0003 	mov.w	r0, #3
 8001610:	f04f 0100 	mov.w	r1, #0
 8001614:	f7ff ff46 	bl	80014a4 <CARME_CAN_Write_Register>
 8001618:	f04f 0301 	mov.w	r3, #1
 800161c:	73fb      	strb	r3, [r7, #15]
 800161e:	78fb      	ldrb	r3, [r7, #3]
 8001620:	f003 0301 	and.w	r3, r3, #1
 8001624:	2b00      	cmp	r3, #0
 8001626:	d003      	beq.n	8001630 <CARME_CAN_Init+0x9c>
 8001628:	7bfb      	ldrb	r3, [r7, #15]
 800162a:	f023 0301 	bic.w	r3, r3, #1
 800162e:	73fb      	strb	r3, [r7, #15]
 8001630:	78fb      	ldrb	r3, [r7, #3]
 8001632:	f003 0302 	and.w	r3, r3, #2
 8001636:	2b00      	cmp	r3, #0
 8001638:	d003      	beq.n	8001642 <CARME_CAN_Init+0xae>
 800163a:	7bfb      	ldrb	r3, [r7, #15]
 800163c:	f043 0302 	orr.w	r3, r3, #2
 8001640:	73fb      	strb	r3, [r7, #15]
 8001642:	7bfb      	ldrb	r3, [r7, #15]
 8001644:	f04f 0000 	mov.w	r0, #0
 8001648:	4619      	mov	r1, r3
 800164a:	f7ff ff2b 	bl	80014a4 <CARME_CAN_Write_Register>
 800164e:	f107 0710 	add.w	r7, r7, #16
 8001652:	46bd      	mov	sp, r7
 8001654:	bd80      	pop	{r7, pc}
 8001656:	bf00      	nop

08001658 <CARME_CAN_InitI>:
 8001658:	b580      	push	{r7, lr}
 800165a:	b084      	sub	sp, #16
 800165c:	af00      	add	r7, sp, #0
 800165e:	60f8      	str	r0, [r7, #12]
 8001660:	460b      	mov	r3, r1
 8001662:	607a      	str	r2, [r7, #4]
 8001664:	72fb      	strb	r3, [r7, #11]
 8001666:	68f8      	ldr	r0, [r7, #12]
 8001668:	f04f 0100 	mov.w	r1, #0
 800166c:	f7ff ff92 	bl	8001594 <CARME_CAN_Init>
 8001670:	687b      	ldr	r3, [r7, #4]
 8001672:	b2db      	uxtb	r3, r3
 8001674:	f04f 0004 	mov.w	r0, #4
 8001678:	4619      	mov	r1, r3
 800167a:	f7ff ff13 	bl	80014a4 <CARME_CAN_Write_Register>
 800167e:	7afb      	ldrb	r3, [r7, #11]
 8001680:	4618      	mov	r0, r3
 8001682:	f000 f819 	bl	80016b8 <CARME_CAN_SetMode>
 8001686:	f107 0710 	add.w	r7, r7, #16
 800168a:	46bd      	mov	sp, r7
 800168c:	bd80      	pop	{r7, pc}
 800168e:	bf00      	nop

08001690 <CARME_CAN_RegisterIRQCallback>:
 8001690:	b480      	push	{r7}
 8001692:	b083      	sub	sp, #12
 8001694:	af00      	add	r7, sp, #0
 8001696:	4603      	mov	r3, r0
 8001698:	6039      	str	r1, [r7, #0]
 800169a:	71fb      	strb	r3, [r7, #7]
 800169c:	79fa      	ldrb	r2, [r7, #7]
 800169e:	f640 1348 	movw	r3, #2376	; 0x948
 80016a2:	f2c2 0300 	movt	r3, #8192	; 0x2000
 80016a6:	6839      	ldr	r1, [r7, #0]
 80016a8:	f843 1022 	str.w	r1, [r3, r2, lsl #2]
 80016ac:	f107 070c 	add.w	r7, r7, #12
 80016b0:	46bd      	mov	sp, r7
 80016b2:	bc80      	pop	{r7}
 80016b4:	4770      	bx	lr
 80016b6:	bf00      	nop

080016b8 <CARME_CAN_SetMode>:
 80016b8:	b580      	push	{r7, lr}
 80016ba:	b084      	sub	sp, #16
 80016bc:	af00      	add	r7, sp, #0
 80016be:	4603      	mov	r3, r0
 80016c0:	71fb      	strb	r3, [r7, #7]
 80016c2:	f04f 0300 	mov.w	r3, #0
 80016c6:	73fb      	strb	r3, [r7, #15]
 80016c8:	f04f 0000 	mov.w	r0, #0
 80016cc:	f7ff ff04 	bl	80014d8 <CARME_CAN_Read_Register>
 80016d0:	4603      	mov	r3, r0
 80016d2:	73bb      	strb	r3, [r7, #14]
 80016d4:	79fb      	ldrb	r3, [r7, #7]
 80016d6:	2b00      	cmp	r3, #0
 80016d8:	d006      	beq.n	80016e8 <CARME_CAN_SetMode+0x30>
 80016da:	2b01      	cmp	r3, #1
 80016dc:	d109      	bne.n	80016f2 <CARME_CAN_SetMode+0x3a>
 80016de:	7bbb      	ldrb	r3, [r7, #14]
 80016e0:	f023 0301 	bic.w	r3, r3, #1
 80016e4:	73bb      	strb	r3, [r7, #14]
 80016e6:	e007      	b.n	80016f8 <CARME_CAN_SetMode+0x40>
 80016e8:	7bbb      	ldrb	r3, [r7, #14]
 80016ea:	f043 0301 	orr.w	r3, r3, #1
 80016ee:	73bb      	strb	r3, [r7, #14]
 80016f0:	e002      	b.n	80016f8 <CARME_CAN_SetMode+0x40>
 80016f2:	f04f 0343 	mov.w	r3, #67	; 0x43
 80016f6:	73fb      	strb	r3, [r7, #15]
 80016f8:	7bbb      	ldrb	r3, [r7, #14]
 80016fa:	f04f 0000 	mov.w	r0, #0
 80016fe:	4619      	mov	r1, r3
 8001700:	f7ff fed0 	bl	80014a4 <CARME_CAN_Write_Register>
 8001704:	7bfb      	ldrb	r3, [r7, #15]
 8001706:	4618      	mov	r0, r3
 8001708:	f107 0710 	add.w	r7, r7, #16
 800170c:	46bd      	mov	sp, r7
 800170e:	bd80      	pop	{r7, pc}

08001710 <CARME_CAN_Read>:
 8001710:	b590      	push	{r4, r7, lr}
 8001712:	b087      	sub	sp, #28
 8001714:	af00      	add	r7, sp, #0
 8001716:	6078      	str	r0, [r7, #4]
 8001718:	f04f 0300 	mov.w	r3, #0
 800171c:	75fb      	strb	r3, [r7, #23]
 800171e:	f04f 0002 	mov.w	r0, #2
 8001722:	f7ff fed9 	bl	80014d8 <CARME_CAN_Read_Register>
 8001726:	4603      	mov	r3, r0
 8001728:	72fb      	strb	r3, [r7, #11]
 800172a:	7afb      	ldrb	r3, [r7, #11]
 800172c:	f003 0340 	and.w	r3, r3, #64	; 0x40
 8001730:	2b00      	cmp	r3, #0
 8001732:	d002      	beq.n	800173a <CARME_CAN_Read+0x2a>
 8001734:	f04f 0346 	mov.w	r3, #70	; 0x46
 8001738:	75fb      	strb	r3, [r7, #23]
 800173a:	7afb      	ldrb	r3, [r7, #11]
 800173c:	f003 0301 	and.w	r3, r3, #1
 8001740:	2b00      	cmp	r3, #0
 8001742:	d102      	bne.n	800174a <CARME_CAN_Read+0x3a>
 8001744:	f04f 0342 	mov.w	r3, #66	; 0x42
 8001748:	75fb      	strb	r3, [r7, #23]
 800174a:	f04f 0010 	mov.w	r0, #16
 800174e:	f7ff fec3 	bl	80014d8 <CARME_CAN_Read_Register>
 8001752:	4603      	mov	r3, r0
 8001754:	72bb      	strb	r3, [r7, #10]
 8001756:	7abb      	ldrb	r3, [r7, #10]
 8001758:	ea4f 13d3 	mov.w	r3, r3, lsr #7
 800175c:	b2db      	uxtb	r3, r3
 800175e:	461a      	mov	r2, r3
 8001760:	687b      	ldr	r3, [r7, #4]
 8001762:	711a      	strb	r2, [r3, #4]
 8001764:	7abb      	ldrb	r3, [r7, #10]
 8001766:	f003 0340 	and.w	r3, r3, #64	; 0x40
 800176a:	2b00      	cmp	r3, #0
 800176c:	bf0c      	ite	eq
 800176e:	2300      	moveq	r3, #0
 8001770:	2301      	movne	r3, #1
 8001772:	b2db      	uxtb	r3, r3
 8001774:	461a      	mov	r2, r3
 8001776:	687b      	ldr	r3, [r7, #4]
 8001778:	715a      	strb	r2, [r3, #5]
 800177a:	7abb      	ldrb	r3, [r7, #10]
 800177c:	f003 030f 	and.w	r3, r3, #15
 8001780:	b2da      	uxtb	r2, r3
 8001782:	687b      	ldr	r3, [r7, #4]
 8001784:	719a      	strb	r2, [r3, #6]
 8001786:	687b      	ldr	r3, [r7, #4]
 8001788:	799b      	ldrb	r3, [r3, #6]
 800178a:	2b08      	cmp	r3, #8
 800178c:	d903      	bls.n	8001796 <CARME_CAN_Read+0x86>
 800178e:	687b      	ldr	r3, [r7, #4]
 8001790:	f04f 0208 	mov.w	r2, #8
 8001794:	719a      	strb	r2, [r3, #6]
 8001796:	687b      	ldr	r3, [r7, #4]
 8001798:	791b      	ldrb	r3, [r3, #4]
 800179a:	2b00      	cmp	r3, #0
 800179c:	d032      	beq.n	8001804 <CARME_CAN_Read+0xf4>
 800179e:	f04f 0011 	mov.w	r0, #17
 80017a2:	f7ff fe99 	bl	80014d8 <CARME_CAN_Read_Register>
 80017a6:	4603      	mov	r3, r0
 80017a8:	ea4f 5343 	mov.w	r3, r3, lsl #21
 80017ac:	461a      	mov	r2, r3
 80017ae:	687b      	ldr	r3, [r7, #4]
 80017b0:	601a      	str	r2, [r3, #0]
 80017b2:	687b      	ldr	r3, [r7, #4]
 80017b4:	681c      	ldr	r4, [r3, #0]
 80017b6:	f04f 0012 	mov.w	r0, #18
 80017ba:	f7ff fe8d 	bl	80014d8 <CARME_CAN_Read_Register>
 80017be:	4603      	mov	r3, r0
 80017c0:	ea4f 3343 	mov.w	r3, r3, lsl #13
 80017c4:	ea44 0203 	orr.w	r2, r4, r3
 80017c8:	687b      	ldr	r3, [r7, #4]
 80017ca:	601a      	str	r2, [r3, #0]
 80017cc:	687b      	ldr	r3, [r7, #4]
 80017ce:	681c      	ldr	r4, [r3, #0]
 80017d0:	f04f 0013 	mov.w	r0, #19
 80017d4:	f7ff fe80 	bl	80014d8 <CARME_CAN_Read_Register>
 80017d8:	4603      	mov	r3, r0
 80017da:	ea4f 1343 	mov.w	r3, r3, lsl #5
 80017de:	ea44 0203 	orr.w	r2, r4, r3
 80017e2:	687b      	ldr	r3, [r7, #4]
 80017e4:	601a      	str	r2, [r3, #0]
 80017e6:	687b      	ldr	r3, [r7, #4]
 80017e8:	681c      	ldr	r4, [r3, #0]
 80017ea:	f04f 0014 	mov.w	r0, #20
 80017ee:	f7ff fe73 	bl	80014d8 <CARME_CAN_Read_Register>
 80017f2:	4603      	mov	r3, r0
 80017f4:	ea4f 03d3 	mov.w	r3, r3, lsr #3
 80017f8:	b2db      	uxtb	r3, r3
 80017fa:	ea44 0203 	orr.w	r2, r4, r3
 80017fe:	687b      	ldr	r3, [r7, #4]
 8001800:	601a      	str	r2, [r3, #0]
 8001802:	e017      	b.n	8001834 <CARME_CAN_Read+0x124>
 8001804:	f04f 0011 	mov.w	r0, #17
 8001808:	f7ff fe66 	bl	80014d8 <CARME_CAN_Read_Register>
 800180c:	4603      	mov	r3, r0
 800180e:	ea4f 03c3 	mov.w	r3, r3, lsl #3
 8001812:	461a      	mov	r2, r3
 8001814:	687b      	ldr	r3, [r7, #4]
 8001816:	601a      	str	r2, [r3, #0]
 8001818:	687b      	ldr	r3, [r7, #4]
 800181a:	681c      	ldr	r4, [r3, #0]
 800181c:	f04f 0012 	mov.w	r0, #18
 8001820:	f7ff fe5a 	bl	80014d8 <CARME_CAN_Read_Register>
 8001824:	4603      	mov	r3, r0
 8001826:	ea4f 1353 	mov.w	r3, r3, lsr #5
 800182a:	b2db      	uxtb	r3, r3
 800182c:	ea44 0203 	orr.w	r2, r4, r3
 8001830:	687b      	ldr	r3, [r7, #4]
 8001832:	601a      	str	r2, [r3, #0]
 8001834:	687b      	ldr	r3, [r7, #4]
 8001836:	791b      	ldrb	r3, [r3, #4]
 8001838:	2b00      	cmp	r3, #0
 800183a:	d003      	beq.n	8001844 <CARME_CAN_Read+0x134>
 800183c:	f04f 0315 	mov.w	r3, #21
 8001840:	613b      	str	r3, [r7, #16]
 8001842:	e002      	b.n	800184a <CARME_CAN_Read+0x13a>
 8001844:	f04f 0313 	mov.w	r3, #19
 8001848:	613b      	str	r3, [r7, #16]
 800184a:	f04f 0300 	mov.w	r3, #0
 800184e:	60fb      	str	r3, [r7, #12]
 8001850:	e00f      	b.n	8001872 <CARME_CAN_Read+0x162>
 8001852:	693a      	ldr	r2, [r7, #16]
 8001854:	68fb      	ldr	r3, [r7, #12]
 8001856:	18d3      	adds	r3, r2, r3
 8001858:	4618      	mov	r0, r3
 800185a:	f7ff fe3d 	bl	80014d8 <CARME_CAN_Read_Register>
 800185e:	4603      	mov	r3, r0
 8001860:	461a      	mov	r2, r3
 8001862:	6879      	ldr	r1, [r7, #4]
 8001864:	68fb      	ldr	r3, [r7, #12]
 8001866:	18cb      	adds	r3, r1, r3
 8001868:	71da      	strb	r2, [r3, #7]
 800186a:	68fb      	ldr	r3, [r7, #12]
 800186c:	f103 0301 	add.w	r3, r3, #1
 8001870:	60fb      	str	r3, [r7, #12]
 8001872:	687b      	ldr	r3, [r7, #4]
 8001874:	799b      	ldrb	r3, [r3, #6]
 8001876:	461a      	mov	r2, r3
 8001878:	68fb      	ldr	r3, [r7, #12]
 800187a:	429a      	cmp	r2, r3
 800187c:	dce9      	bgt.n	8001852 <CARME_CAN_Read+0x142>
 800187e:	f04f 0001 	mov.w	r0, #1
 8001882:	f04f 0104 	mov.w	r1, #4
 8001886:	f7ff fe0d 	bl	80014a4 <CARME_CAN_Write_Register>
 800188a:	7dfb      	ldrb	r3, [r7, #23]
 800188c:	4618      	mov	r0, r3
 800188e:	f107 071c 	add.w	r7, r7, #28
 8001892:	46bd      	mov	sp, r7
 8001894:	bd90      	pop	{r4, r7, pc}
 8001896:	bf00      	nop

08001898 <EXTI9_5_IRQHandler>:
 8001898:	b580      	push	{r7, lr}
 800189a:	b082      	sub	sp, #8
 800189c:	af00      	add	r7, sp, #0
 800189e:	f04f 0003 	mov.w	r0, #3
 80018a2:	f7ff fe19 	bl	80014d8 <CARME_CAN_Read_Register>
 80018a6:	4603      	mov	r3, r0
 80018a8:	71fb      	strb	r3, [r7, #7]
 80018aa:	f44f 7080 	mov.w	r0, #256	; 0x100
 80018ae:	f000 fd17 	bl	80022e0 <EXTI_GetITStatus>
 80018b2:	4603      	mov	r3, r0
 80018b4:	2b00      	cmp	r3, #0
 80018b6:	f000 80a5 	beq.w	8001a04 <EXTI9_5_IRQHandler+0x16c>
 80018ba:	79fb      	ldrb	r3, [r7, #7]
 80018bc:	f003 0301 	and.w	r3, r3, #1
 80018c0:	2b00      	cmp	r3, #0
 80018c2:	d00e      	beq.n	80018e2 <EXTI9_5_IRQHandler+0x4a>
 80018c4:	f640 1348 	movw	r3, #2376	; 0x948
 80018c8:	f2c2 0300 	movt	r3, #8192	; 0x2000
 80018cc:	681b      	ldr	r3, [r3, #0]
 80018ce:	2b00      	cmp	r3, #0
 80018d0:	f000 808a 	beq.w	80019e8 <EXTI9_5_IRQHandler+0x150>
 80018d4:	f640 1348 	movw	r3, #2376	; 0x948
 80018d8:	f2c2 0300 	movt	r3, #8192	; 0x2000
 80018dc:	681b      	ldr	r3, [r3, #0]
 80018de:	4798      	blx	r3
 80018e0:	e082      	b.n	80019e8 <EXTI9_5_IRQHandler+0x150>
 80018e2:	79fb      	ldrb	r3, [r7, #7]
 80018e4:	f003 0302 	and.w	r3, r3, #2
 80018e8:	2b00      	cmp	r3, #0
 80018ea:	d00d      	beq.n	8001908 <EXTI9_5_IRQHandler+0x70>
 80018ec:	f640 1348 	movw	r3, #2376	; 0x948
 80018f0:	f2c2 0300 	movt	r3, #8192	; 0x2000
 80018f4:	685b      	ldr	r3, [r3, #4]
 80018f6:	2b00      	cmp	r3, #0
 80018f8:	d076      	beq.n	80019e8 <EXTI9_5_IRQHandler+0x150>
 80018fa:	f640 1348 	movw	r3, #2376	; 0x948
 80018fe:	f2c2 0300 	movt	r3, #8192	; 0x2000
 8001902:	685b      	ldr	r3, [r3, #4]
 8001904:	4798      	blx	r3
 8001906:	e06f      	b.n	80019e8 <EXTI9_5_IRQHandler+0x150>
 8001908:	79fb      	ldrb	r3, [r7, #7]
 800190a:	f003 0304 	and.w	r3, r3, #4
 800190e:	2b00      	cmp	r3, #0
 8001910:	d00d      	beq.n	800192e <EXTI9_5_IRQHandler+0x96>
 8001912:	f640 1348 	movw	r3, #2376	; 0x948
 8001916:	f2c2 0300 	movt	r3, #8192	; 0x2000
 800191a:	689b      	ldr	r3, [r3, #8]
 800191c:	2b00      	cmp	r3, #0
 800191e:	d063      	beq.n	80019e8 <EXTI9_5_IRQHandler+0x150>
 8001920:	f640 1348 	movw	r3, #2376	; 0x948
 8001924:	f2c2 0300 	movt	r3, #8192	; 0x2000
 8001928:	689b      	ldr	r3, [r3, #8]
 800192a:	4798      	blx	r3
 800192c:	e05c      	b.n	80019e8 <EXTI9_5_IRQHandler+0x150>
 800192e:	79fb      	ldrb	r3, [r7, #7]
 8001930:	f003 0308 	and.w	r3, r3, #8
 8001934:	2b00      	cmp	r3, #0
 8001936:	d00d      	beq.n	8001954 <EXTI9_5_IRQHandler+0xbc>
 8001938:	f640 1348 	movw	r3, #2376	; 0x948
 800193c:	f2c2 0300 	movt	r3, #8192	; 0x2000
 8001940:	68db      	ldr	r3, [r3, #12]
 8001942:	2b00      	cmp	r3, #0
 8001944:	d050      	beq.n	80019e8 <EXTI9_5_IRQHandler+0x150>
 8001946:	f640 1348 	movw	r3, #2376	; 0x948
 800194a:	f2c2 0300 	movt	r3, #8192	; 0x2000
 800194e:	68db      	ldr	r3, [r3, #12]
 8001950:	4798      	blx	r3
 8001952:	e049      	b.n	80019e8 <EXTI9_5_IRQHandler+0x150>
 8001954:	79fb      	ldrb	r3, [r7, #7]
 8001956:	f003 0310 	and.w	r3, r3, #16
 800195a:	2b00      	cmp	r3, #0
 800195c:	d00d      	beq.n	800197a <EXTI9_5_IRQHandler+0xe2>
 800195e:	f640 1348 	movw	r3, #2376	; 0x948
 8001962:	f2c2 0300 	movt	r3, #8192	; 0x2000
 8001966:	691b      	ldr	r3, [r3, #16]
 8001968:	2b00      	cmp	r3, #0
 800196a:	d03d      	beq.n	80019e8 <EXTI9_5_IRQHandler+0x150>
 800196c:	f640 1348 	movw	r3, #2376	; 0x948
 8001970:	f2c2 0300 	movt	r3, #8192	; 0x2000
 8001974:	691b      	ldr	r3, [r3, #16]
 8001976:	4798      	blx	r3
 8001978:	e036      	b.n	80019e8 <EXTI9_5_IRQHandler+0x150>
 800197a:	79fb      	ldrb	r3, [r7, #7]
 800197c:	f003 0320 	and.w	r3, r3, #32
 8001980:	2b00      	cmp	r3, #0
 8001982:	d00d      	beq.n	80019a0 <EXTI9_5_IRQHandler+0x108>
 8001984:	f640 1348 	movw	r3, #2376	; 0x948
 8001988:	f2c2 0300 	movt	r3, #8192	; 0x2000
 800198c:	695b      	ldr	r3, [r3, #20]
 800198e:	2b00      	cmp	r3, #0
 8001990:	d02a      	beq.n	80019e8 <EXTI9_5_IRQHandler+0x150>
 8001992:	f640 1348 	movw	r3, #2376	; 0x948
 8001996:	f2c2 0300 	movt	r3, #8192	; 0x2000
 800199a:	695b      	ldr	r3, [r3, #20]
 800199c:	4798      	blx	r3
 800199e:	e023      	b.n	80019e8 <EXTI9_5_IRQHandler+0x150>
 80019a0:	79fb      	ldrb	r3, [r7, #7]
 80019a2:	f003 0340 	and.w	r3, r3, #64	; 0x40
 80019a6:	2b00      	cmp	r3, #0
 80019a8:	d00d      	beq.n	80019c6 <EXTI9_5_IRQHandler+0x12e>
 80019aa:	f640 1348 	movw	r3, #2376	; 0x948
 80019ae:	f2c2 0300 	movt	r3, #8192	; 0x2000
 80019b2:	699b      	ldr	r3, [r3, #24]
 80019b4:	2b00      	cmp	r3, #0
 80019b6:	d017      	beq.n	80019e8 <EXTI9_5_IRQHandler+0x150>
 80019b8:	f640 1348 	movw	r3, #2376	; 0x948
 80019bc:	f2c2 0300 	movt	r3, #8192	; 0x2000
 80019c0:	699b      	ldr	r3, [r3, #24]
 80019c2:	4798      	blx	r3
 80019c4:	e010      	b.n	80019e8 <EXTI9_5_IRQHandler+0x150>
 80019c6:	79fb      	ldrb	r3, [r7, #7]
 80019c8:	b25b      	sxtb	r3, r3
 80019ca:	2b00      	cmp	r3, #0
 80019cc:	da0c      	bge.n	80019e8 <EXTI9_5_IRQHandler+0x150>
 80019ce:	f640 1348 	movw	r3, #2376	; 0x948
 80019d2:	f2c2 0300 	movt	r3, #8192	; 0x2000
 80019d6:	69db      	ldr	r3, [r3, #28]
 80019d8:	2b00      	cmp	r3, #0
 80019da:	d005      	beq.n	80019e8 <EXTI9_5_IRQHandler+0x150>
 80019dc:	f640 1348 	movw	r3, #2376	; 0x948
 80019e0:	f2c2 0300 	movt	r3, #8192	; 0x2000
 80019e4:	69db      	ldr	r3, [r3, #28]
 80019e6:	4798      	blx	r3
 80019e8:	f04f 0003 	mov.w	r0, #3
 80019ec:	f7ff fd74 	bl	80014d8 <CARME_CAN_Read_Register>
 80019f0:	4603      	mov	r3, r0
 80019f2:	71fb      	strb	r3, [r7, #7]
 80019f4:	79fb      	ldrb	r3, [r7, #7]
 80019f6:	2b00      	cmp	r3, #0
 80019f8:	f47f af5f 	bne.w	80018ba <EXTI9_5_IRQHandler+0x22>
 80019fc:	f44f 7080 	mov.w	r0, #256	; 0x100
 8001a00:	f000 fc8c 	bl	800231c <EXTI_ClearITPendingBit>
 8001a04:	f107 0708 	add.w	r7, r7, #8
 8001a08:	46bd      	mov	sp, r7
 8001a0a:	bd80      	pop	{r7, pc}

08001a0c <CARME_CAN_SetBusTiming>:
 8001a0c:	b580      	push	{r7, lr}
 8001a0e:	b082      	sub	sp, #8
 8001a10:	af00      	add	r7, sp, #0
 8001a12:	4602      	mov	r2, r0
 8001a14:	460b      	mov	r3, r1
 8001a16:	71fa      	strb	r2, [r7, #7]
 8001a18:	71bb      	strb	r3, [r7, #6]
 8001a1a:	79fb      	ldrb	r3, [r7, #7]
 8001a1c:	f04f 0006 	mov.w	r0, #6
 8001a20:	4619      	mov	r1, r3
 8001a22:	f7ff fd3f 	bl	80014a4 <CARME_CAN_Write_Register>
 8001a26:	79bb      	ldrb	r3, [r7, #6]
 8001a28:	f04f 0007 	mov.w	r0, #7
 8001a2c:	4619      	mov	r1, r3
 8001a2e:	f7ff fd39 	bl	80014a4 <CARME_CAN_Write_Register>
 8001a32:	f107 0708 	add.w	r7, r7, #8
 8001a36:	46bd      	mov	sp, r7
 8001a38:	bd80      	pop	{r7, pc}
 8001a3a:	bf00      	nop

08001a3c <CARME_CAN_SetBaudrate>:
 8001a3c:	b580      	push	{r7, lr}
 8001a3e:	b084      	sub	sp, #16
 8001a40:	af00      	add	r7, sp, #0
 8001a42:	6078      	str	r0, [r7, #4]
 8001a44:	f04f 0300 	mov.w	r3, #0
 8001a48:	73fb      	strb	r3, [r7, #15]
 8001a4a:	687b      	ldr	r3, [r7, #4]
 8001a4c:	f24d 0290 	movw	r2, #53392	; 0xd090
 8001a50:	f2c0 0203 	movt	r2, #3
 8001a54:	4293      	cmp	r3, r2
 8001a56:	d020      	beq.n	8001a9a <CARME_CAN_SetBaudrate+0x5e>
 8001a58:	f24d 0290 	movw	r2, #53392	; 0xd090
 8001a5c:	f2c0 0203 	movt	r2, #3
 8001a60:	4293      	cmp	r3, r2
 8001a62:	d806      	bhi.n	8001a72 <CARME_CAN_SetBaudrate+0x36>
 8001a64:	f64e 0248 	movw	r2, #59464	; 0xe848
 8001a68:	f2c0 0201 	movt	r2, #1
 8001a6c:	4293      	cmp	r3, r2
 8001a6e:	d00d      	beq.n	8001a8c <CARME_CAN_SetBaudrate+0x50>
 8001a70:	e028      	b.n	8001ac4 <CARME_CAN_SetBaudrate+0x88>
 8001a72:	f24a 1220 	movw	r2, #41248	; 0xa120
 8001a76:	f2c0 0207 	movt	r2, #7
 8001a7a:	4293      	cmp	r3, r2
 8001a7c:	d014      	beq.n	8001aa8 <CARME_CAN_SetBaudrate+0x6c>
 8001a7e:	f244 2240 	movw	r2, #16960	; 0x4240
 8001a82:	f2c0 020f 	movt	r2, #15
 8001a86:	4293      	cmp	r3, r2
 8001a88:	d015      	beq.n	8001ab6 <CARME_CAN_SetBaudrate+0x7a>
 8001a8a:	e01b      	b.n	8001ac4 <CARME_CAN_SetBaudrate+0x88>
 8001a8c:	f04f 0045 	mov.w	r0, #69	; 0x45
 8001a90:	f04f 011c 	mov.w	r1, #28
 8001a94:	f7ff ffba 	bl	8001a0c <CARME_CAN_SetBusTiming>
 8001a98:	e018      	b.n	8001acc <CARME_CAN_SetBaudrate+0x90>
 8001a9a:	f04f 0042 	mov.w	r0, #66	; 0x42
 8001a9e:	f04f 011c 	mov.w	r1, #28
 8001aa2:	f7ff ffb3 	bl	8001a0c <CARME_CAN_SetBusTiming>
 8001aa6:	e011      	b.n	8001acc <CARME_CAN_SetBaudrate+0x90>
 8001aa8:	f04f 0040 	mov.w	r0, #64	; 0x40
 8001aac:	f04f 016f 	mov.w	r1, #111	; 0x6f
 8001ab0:	f7ff ffac 	bl	8001a0c <CARME_CAN_SetBusTiming>
 8001ab4:	e00a      	b.n	8001acc <CARME_CAN_SetBaudrate+0x90>
 8001ab6:	f04f 0040 	mov.w	r0, #64	; 0x40
 8001aba:	f04f 0109 	mov.w	r1, #9
 8001abe:	f7ff ffa5 	bl	8001a0c <CARME_CAN_SetBusTiming>
 8001ac2:	e003      	b.n	8001acc <CARME_CAN_SetBaudrate+0x90>
 8001ac4:	f04f 0341 	mov.w	r3, #65	; 0x41
 8001ac8:	73fb      	strb	r3, [r7, #15]
 8001aca:	bf00      	nop
 8001acc:	7bfb      	ldrb	r3, [r7, #15]
 8001ace:	4618      	mov	r0, r3
 8001ad0:	f107 0710 	add.w	r7, r7, #16
 8001ad4:	46bd      	mov	sp, r7
 8001ad6:	bd80      	pop	{r7, pc}

08001ad8 <SYSCFG_EXTILineConfig>:
 8001ad8:	b490      	push	{r4, r7}
 8001ada:	b084      	sub	sp, #16
 8001adc:	af00      	add	r7, sp, #0
 8001ade:	4602      	mov	r2, r0
 8001ae0:	460b      	mov	r3, r1
 8001ae2:	71fa      	strb	r2, [r7, #7]
 8001ae4:	71bb      	strb	r3, [r7, #6]
 8001ae6:	f04f 0300 	mov.w	r3, #0
 8001aea:	60fb      	str	r3, [r7, #12]
 8001aec:	79bb      	ldrb	r3, [r7, #6]
 8001aee:	f003 0303 	and.w	r3, r3, #3
 8001af2:	ea4f 0383 	mov.w	r3, r3, lsl #2
 8001af6:	f04f 020f 	mov.w	r2, #15
 8001afa:	fa02 f303 	lsl.w	r3, r2, r3
 8001afe:	60fb      	str	r3, [r7, #12]
 8001b00:	f44f 5360 	mov.w	r3, #14336	; 0x3800
 8001b04:	f2c4 0301 	movt	r3, #16385	; 0x4001
 8001b08:	79ba      	ldrb	r2, [r7, #6]
 8001b0a:	ea4f 0292 	mov.w	r2, r2, lsr #2
 8001b0e:	b2d2      	uxtb	r2, r2
 8001b10:	4610      	mov	r0, r2
 8001b12:	f44f 5260 	mov.w	r2, #14336	; 0x3800
 8001b16:	f2c4 0201 	movt	r2, #16385	; 0x4001
 8001b1a:	79b9      	ldrb	r1, [r7, #6]
 8001b1c:	ea4f 0191 	mov.w	r1, r1, lsr #2
 8001b20:	b2c9      	uxtb	r1, r1
 8001b22:	f101 0102 	add.w	r1, r1, #2
 8001b26:	f852 1021 	ldr.w	r1, [r2, r1, lsl #2]
 8001b2a:	68fa      	ldr	r2, [r7, #12]
 8001b2c:	ea6f 0202 	mvn.w	r2, r2
 8001b30:	4011      	ands	r1, r2
 8001b32:	f100 0202 	add.w	r2, r0, #2
 8001b36:	f843 1022 	str.w	r1, [r3, r2, lsl #2]
 8001b3a:	f44f 5360 	mov.w	r3, #14336	; 0x3800
 8001b3e:	f2c4 0301 	movt	r3, #16385	; 0x4001
 8001b42:	79ba      	ldrb	r2, [r7, #6]
 8001b44:	ea4f 0292 	mov.w	r2, r2, lsr #2
 8001b48:	b2d2      	uxtb	r2, r2
 8001b4a:	4610      	mov	r0, r2
 8001b4c:	f44f 5260 	mov.w	r2, #14336	; 0x3800
 8001b50:	f2c4 0201 	movt	r2, #16385	; 0x4001
 8001b54:	79b9      	ldrb	r1, [r7, #6]
 8001b56:	ea4f 0191 	mov.w	r1, r1, lsr #2
 8001b5a:	b2c9      	uxtb	r1, r1
 8001b5c:	f101 0102 	add.w	r1, r1, #2
 8001b60:	f852 1021 	ldr.w	r1, [r2, r1, lsl #2]
 8001b64:	79fc      	ldrb	r4, [r7, #7]
 8001b66:	79ba      	ldrb	r2, [r7, #6]
 8001b68:	f002 0203 	and.w	r2, r2, #3
 8001b6c:	ea4f 0282 	mov.w	r2, r2, lsl #2
 8001b70:	fa04 f202 	lsl.w	r2, r4, r2
 8001b74:	4311      	orrs	r1, r2
 8001b76:	f100 0202 	add.w	r2, r0, #2
 8001b7a:	f843 1022 	str.w	r1, [r3, r2, lsl #2]
 8001b7e:	f107 0710 	add.w	r7, r7, #16
 8001b82:	46bd      	mov	sp, r7
 8001b84:	bc90      	pop	{r4, r7}
 8001b86:	4770      	bx	lr

08001b88 <GPIO_DeInit>:
 8001b88:	b580      	push	{r7, lr}
 8001b8a:	b082      	sub	sp, #8
 8001b8c:	af00      	add	r7, sp, #0
 8001b8e:	6078      	str	r0, [r7, #4]
 8001b90:	687a      	ldr	r2, [r7, #4]
 8001b92:	f04f 0300 	mov.w	r3, #0
 8001b96:	f2c4 0302 	movt	r3, #16386	; 0x4002
 8001b9a:	429a      	cmp	r2, r3
 8001b9c:	d10c      	bne.n	8001bb8 <GPIO_DeInit+0x30>
 8001b9e:	f04f 0001 	mov.w	r0, #1
 8001ba2:	f04f 0101 	mov.w	r1, #1
 8001ba6:	f7fe fdfd 	bl	80007a4 <RCC_AHB1PeriphResetCmd>
 8001baa:	f04f 0001 	mov.w	r0, #1
 8001bae:	f04f 0100 	mov.w	r1, #0
 8001bb2:	f7fe fdf7 	bl	80007a4 <RCC_AHB1PeriphResetCmd>
 8001bb6:	e0c6      	b.n	8001d46 <GPIO_DeInit+0x1be>
 8001bb8:	687a      	ldr	r2, [r7, #4]
 8001bba:	f44f 6380 	mov.w	r3, #1024	; 0x400
 8001bbe:	f2c4 0302 	movt	r3, #16386	; 0x4002
 8001bc2:	429a      	cmp	r2, r3
 8001bc4:	d10c      	bne.n	8001be0 <GPIO_DeInit+0x58>
 8001bc6:	f04f 0002 	mov.w	r0, #2
 8001bca:	f04f 0101 	mov.w	r1, #1
 8001bce:	f7fe fde9 	bl	80007a4 <RCC_AHB1PeriphResetCmd>
 8001bd2:	f04f 0002 	mov.w	r0, #2
 8001bd6:	f04f 0100 	mov.w	r1, #0
 8001bda:	f7fe fde3 	bl	80007a4 <RCC_AHB1PeriphResetCmd>
 8001bde:	e0b2      	b.n	8001d46 <GPIO_DeInit+0x1be>
 8001be0:	687a      	ldr	r2, [r7, #4]
 8001be2:	f44f 6300 	mov.w	r3, #2048	; 0x800
 8001be6:	f2c4 0302 	movt	r3, #16386	; 0x4002
 8001bea:	429a      	cmp	r2, r3
 8001bec:	d10c      	bne.n	8001c08 <GPIO_DeInit+0x80>
 8001bee:	f04f 0004 	mov.w	r0, #4
 8001bf2:	f04f 0101 	mov.w	r1, #1
 8001bf6:	f7fe fdd5 	bl	80007a4 <RCC_AHB1PeriphResetCmd>
 8001bfa:	f04f 0004 	mov.w	r0, #4
 8001bfe:	f04f 0100 	mov.w	r1, #0
 8001c02:	f7fe fdcf 	bl	80007a4 <RCC_AHB1PeriphResetCmd>
 8001c06:	e09e      	b.n	8001d46 <GPIO_DeInit+0x1be>
 8001c08:	687a      	ldr	r2, [r7, #4]
 8001c0a:	f44f 6340 	mov.w	r3, #3072	; 0xc00
 8001c0e:	f2c4 0302 	movt	r3, #16386	; 0x4002
 8001c12:	429a      	cmp	r2, r3
 8001c14:	d10c      	bne.n	8001c30 <GPIO_DeInit+0xa8>
 8001c16:	f04f 0008 	mov.w	r0, #8
 8001c1a:	f04f 0101 	mov.w	r1, #1
 8001c1e:	f7fe fdc1 	bl	80007a4 <RCC_AHB1PeriphResetCmd>
 8001c22:	f04f 0008 	mov.w	r0, #8
 8001c26:	f04f 0100 	mov.w	r1, #0
 8001c2a:	f7fe fdbb 	bl	80007a4 <RCC_AHB1PeriphResetCmd>
 8001c2e:	e08a      	b.n	8001d46 <GPIO_DeInit+0x1be>
 8001c30:	687a      	ldr	r2, [r7, #4]
 8001c32:	f44f 5380 	mov.w	r3, #4096	; 0x1000
 8001c36:	f2c4 0302 	movt	r3, #16386	; 0x4002
 8001c3a:	429a      	cmp	r2, r3
 8001c3c:	d10c      	bne.n	8001c58 <GPIO_DeInit+0xd0>
 8001c3e:	f04f 0010 	mov.w	r0, #16
 8001c42:	f04f 0101 	mov.w	r1, #1
 8001c46:	f7fe fdad 	bl	80007a4 <RCC_AHB1PeriphResetCmd>
 8001c4a:	f04f 0010 	mov.w	r0, #16
 8001c4e:	f04f 0100 	mov.w	r1, #0
 8001c52:	f7fe fda7 	bl	80007a4 <RCC_AHB1PeriphResetCmd>
 8001c56:	e076      	b.n	8001d46 <GPIO_DeInit+0x1be>
 8001c58:	687a      	ldr	r2, [r7, #4]
 8001c5a:	f44f 53a0 	mov.w	r3, #5120	; 0x1400
 8001c5e:	f2c4 0302 	movt	r3, #16386	; 0x4002
 8001c62:	429a      	cmp	r2, r3
 8001c64:	d10c      	bne.n	8001c80 <GPIO_DeInit+0xf8>
 8001c66:	f04f 0020 	mov.w	r0, #32
 8001c6a:	f04f 0101 	mov.w	r1, #1
 8001c6e:	f7fe fd99 	bl	80007a4 <RCC_AHB1PeriphResetCmd>
 8001c72:	f04f 0020 	mov.w	r0, #32
 8001c76:	f04f 0100 	mov.w	r1, #0
 8001c7a:	f7fe fd93 	bl	80007a4 <RCC_AHB1PeriphResetCmd>
 8001c7e:	e062      	b.n	8001d46 <GPIO_DeInit+0x1be>
 8001c80:	687a      	ldr	r2, [r7, #4]
 8001c82:	f44f 53c0 	mov.w	r3, #6144	; 0x1800
 8001c86:	f2c4 0302 	movt	r3, #16386	; 0x4002
 8001c8a:	429a      	cmp	r2, r3
 8001c8c:	d10c      	bne.n	8001ca8 <GPIO_DeInit+0x120>
 8001c8e:	f04f 0040 	mov.w	r0, #64	; 0x40
 8001c92:	f04f 0101 	mov.w	r1, #1
 8001c96:	f7fe fd85 	bl	80007a4 <RCC_AHB1PeriphResetCmd>
 8001c9a:	f04f 0040 	mov.w	r0, #64	; 0x40
 8001c9e:	f04f 0100 	mov.w	r1, #0
 8001ca2:	f7fe fd7f 	bl	80007a4 <RCC_AHB1PeriphResetCmd>
 8001ca6:	e04e      	b.n	8001d46 <GPIO_DeInit+0x1be>
 8001ca8:	687a      	ldr	r2, [r7, #4]
 8001caa:	f44f 53e0 	mov.w	r3, #7168	; 0x1c00
 8001cae:	f2c4 0302 	movt	r3, #16386	; 0x4002
 8001cb2:	429a      	cmp	r2, r3
 8001cb4:	d10c      	bne.n	8001cd0 <GPIO_DeInit+0x148>
 8001cb6:	f04f 0080 	mov.w	r0, #128	; 0x80
 8001cba:	f04f 0101 	mov.w	r1, #1
 8001cbe:	f7fe fd71 	bl	80007a4 <RCC_AHB1PeriphResetCmd>
 8001cc2:	f04f 0080 	mov.w	r0, #128	; 0x80
 8001cc6:	f04f 0100 	mov.w	r1, #0
 8001cca:	f7fe fd6b 	bl	80007a4 <RCC_AHB1PeriphResetCmd>
 8001cce:	e03a      	b.n	8001d46 <GPIO_DeInit+0x1be>
 8001cd0:	687a      	ldr	r2, [r7, #4]
 8001cd2:	f44f 5300 	mov.w	r3, #8192	; 0x2000
 8001cd6:	f2c4 0302 	movt	r3, #16386	; 0x4002
 8001cda:	429a      	cmp	r2, r3
 8001cdc:	d10c      	bne.n	8001cf8 <GPIO_DeInit+0x170>
 8001cde:	f44f 7080 	mov.w	r0, #256	; 0x100
 8001ce2:	f04f 0101 	mov.w	r1, #1
 8001ce6:	f7fe fd5d 	bl	80007a4 <RCC_AHB1PeriphResetCmd>
 8001cea:	f44f 7080 	mov.w	r0, #256	; 0x100
 8001cee:	f04f 0100 	mov.w	r1, #0
 8001cf2:	f7fe fd57 	bl	80007a4 <RCC_AHB1PeriphResetCmd>
 8001cf6:	e026      	b.n	8001d46 <GPIO_DeInit+0x1be>
 8001cf8:	687a      	ldr	r2, [r7, #4]
 8001cfa:	f44f 5310 	mov.w	r3, #9216	; 0x2400
 8001cfe:	f2c4 0302 	movt	r3, #16386	; 0x4002
 8001d02:	429a      	cmp	r2, r3
 8001d04:	d10c      	bne.n	8001d20 <GPIO_DeInit+0x198>
 8001d06:	f44f 7000 	mov.w	r0, #512	; 0x200
 8001d0a:	f04f 0101 	mov.w	r1, #1
 8001d0e:	f7fe fd49 	bl	80007a4 <RCC_AHB1PeriphResetCmd>
 8001d12:	f44f 7000 	mov.w	r0, #512	; 0x200
 8001d16:	f04f 0100 	mov.w	r1, #0
 8001d1a:	f7fe fd43 	bl	80007a4 <RCC_AHB1PeriphResetCmd>
 8001d1e:	e012      	b.n	8001d46 <GPIO_DeInit+0x1be>
 8001d20:	687a      	ldr	r2, [r7, #4]
 8001d22:	f44f 5320 	mov.w	r3, #10240	; 0x2800
 8001d26:	f2c4 0302 	movt	r3, #16386	; 0x4002
 8001d2a:	429a      	cmp	r2, r3
 8001d2c:	d10b      	bne.n	8001d46 <GPIO_DeInit+0x1be>
 8001d2e:	f44f 6080 	mov.w	r0, #1024	; 0x400
 8001d32:	f04f 0101 	mov.w	r1, #1
 8001d36:	f7fe fd35 	bl	80007a4 <RCC_AHB1PeriphResetCmd>
 8001d3a:	f44f 6080 	mov.w	r0, #1024	; 0x400
 8001d3e:	f04f 0100 	mov.w	r1, #0
 8001d42:	f7fe fd2f 	bl	80007a4 <RCC_AHB1PeriphResetCmd>
 8001d46:	f107 0708 	add.w	r7, r7, #8
 8001d4a:	46bd      	mov	sp, r7
 8001d4c:	bd80      	pop	{r7, pc}
 8001d4e:	bf00      	nop

08001d50 <GPIO_Init>:
 8001d50:	b480      	push	{r7}
 8001d52:	b087      	sub	sp, #28
 8001d54:	af00      	add	r7, sp, #0
 8001d56:	6078      	str	r0, [r7, #4]
 8001d58:	6039      	str	r1, [r7, #0]
 8001d5a:	f04f 0300 	mov.w	r3, #0
 8001d5e:	617b      	str	r3, [r7, #20]
 8001d60:	f04f 0300 	mov.w	r3, #0
 8001d64:	613b      	str	r3, [r7, #16]
 8001d66:	f04f 0300 	mov.w	r3, #0
 8001d6a:	60fb      	str	r3, [r7, #12]
 8001d6c:	f04f 0300 	mov.w	r3, #0
 8001d70:	617b      	str	r3, [r7, #20]
 8001d72:	e086      	b.n	8001e82 <GPIO_Init+0x132>
 8001d74:	697b      	ldr	r3, [r7, #20]
 8001d76:	f04f 0201 	mov.w	r2, #1
 8001d7a:	fa02 f303 	lsl.w	r3, r2, r3
 8001d7e:	613b      	str	r3, [r7, #16]
 8001d80:	683b      	ldr	r3, [r7, #0]
 8001d82:	681a      	ldr	r2, [r3, #0]
 8001d84:	693b      	ldr	r3, [r7, #16]
 8001d86:	4013      	ands	r3, r2
 8001d88:	60fb      	str	r3, [r7, #12]
 8001d8a:	68fa      	ldr	r2, [r7, #12]
 8001d8c:	693b      	ldr	r3, [r7, #16]
 8001d8e:	429a      	cmp	r2, r3
 8001d90:	d173      	bne.n	8001e7a <GPIO_Init+0x12a>
 8001d92:	687b      	ldr	r3, [r7, #4]
 8001d94:	681a      	ldr	r2, [r3, #0]
 8001d96:	697b      	ldr	r3, [r7, #20]
 8001d98:	ea4f 0343 	mov.w	r3, r3, lsl #1
 8001d9c:	f04f 0103 	mov.w	r1, #3
 8001da0:	fa01 f303 	lsl.w	r3, r1, r3
 8001da4:	ea6f 0303 	mvn.w	r3, r3
 8001da8:	401a      	ands	r2, r3
 8001daa:	687b      	ldr	r3, [r7, #4]
 8001dac:	601a      	str	r2, [r3, #0]
 8001dae:	687b      	ldr	r3, [r7, #4]
 8001db0:	681a      	ldr	r2, [r3, #0]
 8001db2:	683b      	ldr	r3, [r7, #0]
 8001db4:	791b      	ldrb	r3, [r3, #4]
 8001db6:	4619      	mov	r1, r3
 8001db8:	697b      	ldr	r3, [r7, #20]
 8001dba:	ea4f 0343 	mov.w	r3, r3, lsl #1
 8001dbe:	fa01 f303 	lsl.w	r3, r1, r3
 8001dc2:	431a      	orrs	r2, r3
 8001dc4:	687b      	ldr	r3, [r7, #4]
 8001dc6:	601a      	str	r2, [r3, #0]
 8001dc8:	683b      	ldr	r3, [r7, #0]
 8001dca:	791b      	ldrb	r3, [r3, #4]
 8001dcc:	2b01      	cmp	r3, #1
 8001dce:	d003      	beq.n	8001dd8 <GPIO_Init+0x88>
 8001dd0:	683b      	ldr	r3, [r7, #0]
 8001dd2:	791b      	ldrb	r3, [r3, #4]
 8001dd4:	2b02      	cmp	r3, #2
 8001dd6:	d134      	bne.n	8001e42 <GPIO_Init+0xf2>
 8001dd8:	687b      	ldr	r3, [r7, #4]
 8001dda:	689a      	ldr	r2, [r3, #8]
 8001ddc:	697b      	ldr	r3, [r7, #20]
 8001dde:	ea4f 0343 	mov.w	r3, r3, lsl #1
 8001de2:	f04f 0103 	mov.w	r1, #3
 8001de6:	fa01 f303 	lsl.w	r3, r1, r3
 8001dea:	ea6f 0303 	mvn.w	r3, r3
 8001dee:	401a      	ands	r2, r3
 8001df0:	687b      	ldr	r3, [r7, #4]
 8001df2:	609a      	str	r2, [r3, #8]
 8001df4:	687b      	ldr	r3, [r7, #4]
 8001df6:	689a      	ldr	r2, [r3, #8]
 8001df8:	683b      	ldr	r3, [r7, #0]
 8001dfa:	795b      	ldrb	r3, [r3, #5]
 8001dfc:	4619      	mov	r1, r3
 8001dfe:	697b      	ldr	r3, [r7, #20]
 8001e00:	ea4f 0343 	mov.w	r3, r3, lsl #1
 8001e04:	fa01 f303 	lsl.w	r3, r1, r3
 8001e08:	431a      	orrs	r2, r3
 8001e0a:	687b      	ldr	r3, [r7, #4]
 8001e0c:	609a      	str	r2, [r3, #8]
 8001e0e:	687b      	ldr	r3, [r7, #4]
 8001e10:	685a      	ldr	r2, [r3, #4]
 8001e12:	697b      	ldr	r3, [r7, #20]
 8001e14:	b29b      	uxth	r3, r3
 8001e16:	f04f 0101 	mov.w	r1, #1
 8001e1a:	fa01 f303 	lsl.w	r3, r1, r3
 8001e1e:	ea6f 0303 	mvn.w	r3, r3
 8001e22:	401a      	ands	r2, r3
 8001e24:	687b      	ldr	r3, [r7, #4]
 8001e26:	605a      	str	r2, [r3, #4]
 8001e28:	687b      	ldr	r3, [r7, #4]
 8001e2a:	685a      	ldr	r2, [r3, #4]
 8001e2c:	683b      	ldr	r3, [r7, #0]
 8001e2e:	799b      	ldrb	r3, [r3, #6]
 8001e30:	4619      	mov	r1, r3
 8001e32:	697b      	ldr	r3, [r7, #20]
 8001e34:	b29b      	uxth	r3, r3
 8001e36:	fa01 f303 	lsl.w	r3, r1, r3
 8001e3a:	b29b      	uxth	r3, r3
 8001e3c:	431a      	orrs	r2, r3
 8001e3e:	687b      	ldr	r3, [r7, #4]
 8001e40:	605a      	str	r2, [r3, #4]
 8001e42:	687b      	ldr	r3, [r7, #4]
 8001e44:	68da      	ldr	r2, [r3, #12]
 8001e46:	697b      	ldr	r3, [r7, #20]
 8001e48:	b29b      	uxth	r3, r3
 8001e4a:	ea4f 0343 	mov.w	r3, r3, lsl #1
 8001e4e:	f04f 0103 	mov.w	r1, #3
 8001e52:	fa01 f303 	lsl.w	r3, r1, r3
 8001e56:	ea6f 0303 	mvn.w	r3, r3
 8001e5a:	401a      	ands	r2, r3
 8001e5c:	687b      	ldr	r3, [r7, #4]
 8001e5e:	60da      	str	r2, [r3, #12]
 8001e60:	687b      	ldr	r3, [r7, #4]
 8001e62:	68da      	ldr	r2, [r3, #12]
 8001e64:	683b      	ldr	r3, [r7, #0]
 8001e66:	79db      	ldrb	r3, [r3, #7]
 8001e68:	4619      	mov	r1, r3
 8001e6a:	697b      	ldr	r3, [r7, #20]
 8001e6c:	ea4f 0343 	mov.w	r3, r3, lsl #1
 8001e70:	fa01 f303 	lsl.w	r3, r1, r3
 8001e74:	431a      	orrs	r2, r3
 8001e76:	687b      	ldr	r3, [r7, #4]
 8001e78:	60da      	str	r2, [r3, #12]
 8001e7a:	697b      	ldr	r3, [r7, #20]
 8001e7c:	f103 0301 	add.w	r3, r3, #1
 8001e80:	617b      	str	r3, [r7, #20]
 8001e82:	697b      	ldr	r3, [r7, #20]
 8001e84:	2b0f      	cmp	r3, #15
 8001e86:	f67f af75 	bls.w	8001d74 <GPIO_Init+0x24>
 8001e8a:	f107 071c 	add.w	r7, r7, #28
 8001e8e:	46bd      	mov	sp, r7
 8001e90:	bc80      	pop	{r7}
 8001e92:	4770      	bx	lr

08001e94 <GPIO_StructInit>:
 8001e94:	b480      	push	{r7}
 8001e96:	b083      	sub	sp, #12
 8001e98:	af00      	add	r7, sp, #0
 8001e9a:	6078      	str	r0, [r7, #4]
 8001e9c:	687b      	ldr	r3, [r7, #4]
 8001e9e:	f64f 72ff 	movw	r2, #65535	; 0xffff
 8001ea2:	601a      	str	r2, [r3, #0]
 8001ea4:	687b      	ldr	r3, [r7, #4]
 8001ea6:	f04f 0200 	mov.w	r2, #0
 8001eaa:	711a      	strb	r2, [r3, #4]
 8001eac:	687b      	ldr	r3, [r7, #4]
 8001eae:	f04f 0200 	mov.w	r2, #0
 8001eb2:	715a      	strb	r2, [r3, #5]
 8001eb4:	687b      	ldr	r3, [r7, #4]
 8001eb6:	f04f 0200 	mov.w	r2, #0
 8001eba:	719a      	strb	r2, [r3, #6]
 8001ebc:	687b      	ldr	r3, [r7, #4]
 8001ebe:	f04f 0200 	mov.w	r2, #0
 8001ec2:	71da      	strb	r2, [r3, #7]
 8001ec4:	f107 070c 	add.w	r7, r7, #12
 8001ec8:	46bd      	mov	sp, r7
 8001eca:	bc80      	pop	{r7}
 8001ecc:	4770      	bx	lr
 8001ece:	bf00      	nop

08001ed0 <GPIO_WriteBit>:
 8001ed0:	b480      	push	{r7}
 8001ed2:	b083      	sub	sp, #12
 8001ed4:	af00      	add	r7, sp, #0
 8001ed6:	6078      	str	r0, [r7, #4]
 8001ed8:	4613      	mov	r3, r2
 8001eda:	460a      	mov	r2, r1
 8001edc:	807a      	strh	r2, [r7, #2]
 8001ede:	707b      	strb	r3, [r7, #1]
 8001ee0:	787b      	ldrb	r3, [r7, #1]
 8001ee2:	2b00      	cmp	r3, #0
 8001ee4:	d003      	beq.n	8001eee <GPIO_WriteBit+0x1e>
 8001ee6:	687b      	ldr	r3, [r7, #4]
 8001ee8:	887a      	ldrh	r2, [r7, #2]
 8001eea:	831a      	strh	r2, [r3, #24]
 8001eec:	e002      	b.n	8001ef4 <GPIO_WriteBit+0x24>
 8001eee:	687b      	ldr	r3, [r7, #4]
 8001ef0:	887a      	ldrh	r2, [r7, #2]
 8001ef2:	835a      	strh	r2, [r3, #26]
 8001ef4:	f107 070c 	add.w	r7, r7, #12
 8001ef8:	46bd      	mov	sp, r7
 8001efa:	bc80      	pop	{r7}
 8001efc:	4770      	bx	lr
 8001efe:	bf00      	nop

08001f00 <GPIO_PinAFConfig>:
 8001f00:	b480      	push	{r7}
 8001f02:	b085      	sub	sp, #20
 8001f04:	af00      	add	r7, sp, #0
 8001f06:	6078      	str	r0, [r7, #4]
 8001f08:	4613      	mov	r3, r2
 8001f0a:	460a      	mov	r2, r1
 8001f0c:	807a      	strh	r2, [r7, #2]
 8001f0e:	707b      	strb	r3, [r7, #1]
 8001f10:	f04f 0300 	mov.w	r3, #0
 8001f14:	60fb      	str	r3, [r7, #12]
 8001f16:	f04f 0300 	mov.w	r3, #0
 8001f1a:	60bb      	str	r3, [r7, #8]
 8001f1c:	787a      	ldrb	r2, [r7, #1]
 8001f1e:	887b      	ldrh	r3, [r7, #2]
 8001f20:	f003 0307 	and.w	r3, r3, #7
 8001f24:	ea4f 0383 	mov.w	r3, r3, lsl #2
 8001f28:	fa02 f303 	lsl.w	r3, r2, r3
 8001f2c:	60fb      	str	r3, [r7, #12]
 8001f2e:	887b      	ldrh	r3, [r7, #2]
 8001f30:	ea4f 03d3 	mov.w	r3, r3, lsr #3
 8001f34:	b29b      	uxth	r3, r3
 8001f36:	461a      	mov	r2, r3
 8001f38:	887b      	ldrh	r3, [r7, #2]
 8001f3a:	ea4f 03d3 	mov.w	r3, r3, lsr #3
 8001f3e:	b29b      	uxth	r3, r3
 8001f40:	4619      	mov	r1, r3
 8001f42:	687b      	ldr	r3, [r7, #4]
 8001f44:	f101 0108 	add.w	r1, r1, #8
 8001f48:	f853 1021 	ldr.w	r1, [r3, r1, lsl #2]
 8001f4c:	887b      	ldrh	r3, [r7, #2]
 8001f4e:	f003 0307 	and.w	r3, r3, #7
 8001f52:	ea4f 0383 	mov.w	r3, r3, lsl #2
 8001f56:	f04f 000f 	mov.w	r0, #15
 8001f5a:	fa00 f303 	lsl.w	r3, r0, r3
 8001f5e:	ea6f 0303 	mvn.w	r3, r3
 8001f62:	4019      	ands	r1, r3
 8001f64:	687b      	ldr	r3, [r7, #4]
 8001f66:	f102 0208 	add.w	r2, r2, #8
 8001f6a:	f843 1022 	str.w	r1, [r3, r2, lsl #2]
 8001f6e:	887b      	ldrh	r3, [r7, #2]
 8001f70:	ea4f 03d3 	mov.w	r3, r3, lsr #3
 8001f74:	b29b      	uxth	r3, r3
 8001f76:	461a      	mov	r2, r3
 8001f78:	687b      	ldr	r3, [r7, #4]
 8001f7a:	f102 0208 	add.w	r2, r2, #8
 8001f7e:	f853 2022 	ldr.w	r2, [r3, r2, lsl #2]
 8001f82:	68fb      	ldr	r3, [r7, #12]
 8001f84:	4313      	orrs	r3, r2
 8001f86:	60bb      	str	r3, [r7, #8]
 8001f88:	887b      	ldrh	r3, [r7, #2]
 8001f8a:	ea4f 03d3 	mov.w	r3, r3, lsr #3
 8001f8e:	b29b      	uxth	r3, r3
 8001f90:	461a      	mov	r2, r3
 8001f92:	687b      	ldr	r3, [r7, #4]
 8001f94:	f102 0208 	add.w	r2, r2, #8
 8001f98:	68b9      	ldr	r1, [r7, #8]
 8001f9a:	f843 1022 	str.w	r1, [r3, r2, lsl #2]
 8001f9e:	f107 0714 	add.w	r7, r7, #20
 8001fa2:	46bd      	mov	sp, r7
 8001fa4:	bc80      	pop	{r7}
 8001fa6:	4770      	bx	lr

08001fa8 <FSMC_NORSRAMDeInit>:
 8001fa8:	b480      	push	{r7}
 8001faa:	b083      	sub	sp, #12
 8001fac:	af00      	add	r7, sp, #0
 8001fae:	6078      	str	r0, [r7, #4]
 8001fb0:	687b      	ldr	r3, [r7, #4]
 8001fb2:	2b00      	cmp	r3, #0
 8001fb4:	d107      	bne.n	8001fc6 <FSMC_NORSRAMDeInit+0x1e>
 8001fb6:	f04f 4320 	mov.w	r3, #2684354560	; 0xa0000000
 8001fba:	687a      	ldr	r2, [r7, #4]
 8001fbc:	f243 01db 	movw	r1, #12507	; 0x30db
 8001fc0:	f843 1022 	str.w	r1, [r3, r2, lsl #2]
 8001fc4:	e006      	b.n	8001fd4 <FSMC_NORSRAMDeInit+0x2c>
 8001fc6:	f04f 4320 	mov.w	r3, #2684354560	; 0xa0000000
 8001fca:	687a      	ldr	r2, [r7, #4]
 8001fcc:	f243 01d2 	movw	r1, #12498	; 0x30d2
 8001fd0:	f843 1022 	str.w	r1, [r3, r2, lsl #2]
 8001fd4:	f04f 4320 	mov.w	r3, #2684354560	; 0xa0000000
 8001fd8:	687a      	ldr	r2, [r7, #4]
 8001fda:	f102 0201 	add.w	r2, r2, #1
 8001fde:	f06f 4170 	mvn.w	r1, #4026531840	; 0xf0000000
 8001fe2:	f843 1022 	str.w	r1, [r3, r2, lsl #2]
 8001fe6:	f44f 7382 	mov.w	r3, #260	; 0x104
 8001fea:	f2ca 0300 	movt	r3, #40960	; 0xa000
 8001fee:	687a      	ldr	r2, [r7, #4]
 8001ff0:	f06f 4170 	mvn.w	r1, #4026531840	; 0xf0000000
 8001ff4:	f843 1022 	str.w	r1, [r3, r2, lsl #2]
 8001ff8:	f107 070c 	add.w	r7, r7, #12
 8001ffc:	46bd      	mov	sp, r7
 8001ffe:	bc80      	pop	{r7}
 8002000:	4770      	bx	lr
 8002002:	bf00      	nop

08002004 <FSMC_NORSRAMInit>:
 8002004:	b480      	push	{r7}
 8002006:	b083      	sub	sp, #12
 8002008:	af00      	add	r7, sp, #0
 800200a:	6078      	str	r0, [r7, #4]
 800200c:	f04f 4320 	mov.w	r3, #2684354560	; 0xa0000000
 8002010:	687a      	ldr	r2, [r7, #4]
 8002012:	6812      	ldr	r2, [r2, #0]
 8002014:	6879      	ldr	r1, [r7, #4]
 8002016:	6848      	ldr	r0, [r1, #4]
 8002018:	6879      	ldr	r1, [r7, #4]
 800201a:	6889      	ldr	r1, [r1, #8]
 800201c:	4308      	orrs	r0, r1
 800201e:	6879      	ldr	r1, [r7, #4]
 8002020:	68c9      	ldr	r1, [r1, #12]
 8002022:	4308      	orrs	r0, r1
 8002024:	6879      	ldr	r1, [r7, #4]
 8002026:	6909      	ldr	r1, [r1, #16]
 8002028:	4308      	orrs	r0, r1
 800202a:	6879      	ldr	r1, [r7, #4]
 800202c:	6949      	ldr	r1, [r1, #20]
 800202e:	4308      	orrs	r0, r1
 8002030:	6879      	ldr	r1, [r7, #4]
 8002032:	6989      	ldr	r1, [r1, #24]
 8002034:	4308      	orrs	r0, r1
 8002036:	6879      	ldr	r1, [r7, #4]
 8002038:	69c9      	ldr	r1, [r1, #28]
 800203a:	4308      	orrs	r0, r1
 800203c:	6879      	ldr	r1, [r7, #4]
 800203e:	6a09      	ldr	r1, [r1, #32]
 8002040:	4308      	orrs	r0, r1
 8002042:	6879      	ldr	r1, [r7, #4]
 8002044:	6a49      	ldr	r1, [r1, #36]	; 0x24
 8002046:	4308      	orrs	r0, r1
 8002048:	6879      	ldr	r1, [r7, #4]
 800204a:	6a89      	ldr	r1, [r1, #40]	; 0x28
 800204c:	4308      	orrs	r0, r1
 800204e:	6879      	ldr	r1, [r7, #4]
 8002050:	6ac9      	ldr	r1, [r1, #44]	; 0x2c
 8002052:	4308      	orrs	r0, r1
 8002054:	6879      	ldr	r1, [r7, #4]
 8002056:	6b09      	ldr	r1, [r1, #48]	; 0x30
 8002058:	4301      	orrs	r1, r0
 800205a:	f843 1022 	str.w	r1, [r3, r2, lsl #2]
 800205e:	687b      	ldr	r3, [r7, #4]
 8002060:	689b      	ldr	r3, [r3, #8]
 8002062:	2b08      	cmp	r3, #8
 8002064:	d10d      	bne.n	8002082 <FSMC_NORSRAMInit+0x7e>
 8002066:	f04f 4320 	mov.w	r3, #2684354560	; 0xa0000000
 800206a:	687a      	ldr	r2, [r7, #4]
 800206c:	6812      	ldr	r2, [r2, #0]
 800206e:	f04f 4120 	mov.w	r1, #2684354560	; 0xa0000000
 8002072:	6878      	ldr	r0, [r7, #4]
 8002074:	6800      	ldr	r0, [r0, #0]
 8002076:	f851 1020 	ldr.w	r1, [r1, r0, lsl #2]
 800207a:	f041 0140 	orr.w	r1, r1, #64	; 0x40
 800207e:	f843 1022 	str.w	r1, [r3, r2, lsl #2]
 8002082:	f04f 4320 	mov.w	r3, #2684354560	; 0xa0000000
 8002086:	687a      	ldr	r2, [r7, #4]
 8002088:	6812      	ldr	r2, [r2, #0]
 800208a:	f102 0201 	add.w	r2, r2, #1
 800208e:	6879      	ldr	r1, [r7, #4]
 8002090:	6b49      	ldr	r1, [r1, #52]	; 0x34
 8002092:	6808      	ldr	r0, [r1, #0]
 8002094:	6879      	ldr	r1, [r7, #4]
 8002096:	6b49      	ldr	r1, [r1, #52]	; 0x34
 8002098:	6849      	ldr	r1, [r1, #4]
 800209a:	ea4f 1101 	mov.w	r1, r1, lsl #4
 800209e:	4308      	orrs	r0, r1
 80020a0:	6879      	ldr	r1, [r7, #4]
 80020a2:	6b49      	ldr	r1, [r1, #52]	; 0x34
 80020a4:	6889      	ldr	r1, [r1, #8]
 80020a6:	ea4f 2101 	mov.w	r1, r1, lsl #8
 80020aa:	4308      	orrs	r0, r1
 80020ac:	6879      	ldr	r1, [r7, #4]
 80020ae:	6b49      	ldr	r1, [r1, #52]	; 0x34
 80020b0:	68c9      	ldr	r1, [r1, #12]
 80020b2:	ea4f 4101 	mov.w	r1, r1, lsl #16
 80020b6:	4308      	orrs	r0, r1
 80020b8:	6879      	ldr	r1, [r7, #4]
 80020ba:	6b49      	ldr	r1, [r1, #52]	; 0x34
 80020bc:	6909      	ldr	r1, [r1, #16]
 80020be:	ea4f 5101 	mov.w	r1, r1, lsl #20
 80020c2:	4308      	orrs	r0, r1
 80020c4:	6879      	ldr	r1, [r7, #4]
 80020c6:	6b49      	ldr	r1, [r1, #52]	; 0x34
 80020c8:	6949      	ldr	r1, [r1, #20]
 80020ca:	ea4f 6101 	mov.w	r1, r1, lsl #24
 80020ce:	4308      	orrs	r0, r1
 80020d0:	6879      	ldr	r1, [r7, #4]
 80020d2:	6b49      	ldr	r1, [r1, #52]	; 0x34
 80020d4:	6989      	ldr	r1, [r1, #24]
 80020d6:	4301      	orrs	r1, r0
 80020d8:	f843 1022 	str.w	r1, [r3, r2, lsl #2]
 80020dc:	687b      	ldr	r3, [r7, #4]
 80020de:	6adb      	ldr	r3, [r3, #44]	; 0x2c
 80020e0:	f5b3 4f80 	cmp.w	r3, #16384	; 0x4000
 80020e4:	d127      	bne.n	8002136 <FSMC_NORSRAMInit+0x132>
 80020e6:	f44f 7382 	mov.w	r3, #260	; 0x104
 80020ea:	f2ca 0300 	movt	r3, #40960	; 0xa000
 80020ee:	687a      	ldr	r2, [r7, #4]
 80020f0:	6812      	ldr	r2, [r2, #0]
 80020f2:	6879      	ldr	r1, [r7, #4]
 80020f4:	6b89      	ldr	r1, [r1, #56]	; 0x38
 80020f6:	6808      	ldr	r0, [r1, #0]
 80020f8:	6879      	ldr	r1, [r7, #4]
 80020fa:	6b89      	ldr	r1, [r1, #56]	; 0x38
 80020fc:	6849      	ldr	r1, [r1, #4]
 80020fe:	ea4f 1101 	mov.w	r1, r1, lsl #4
 8002102:	4308      	orrs	r0, r1
 8002104:	6879      	ldr	r1, [r7, #4]
 8002106:	6b89      	ldr	r1, [r1, #56]	; 0x38
 8002108:	6889      	ldr	r1, [r1, #8]
 800210a:	ea4f 2101 	mov.w	r1, r1, lsl #8
 800210e:	4308      	orrs	r0, r1
 8002110:	6879      	ldr	r1, [r7, #4]
 8002112:	6b89      	ldr	r1, [r1, #56]	; 0x38
 8002114:	6909      	ldr	r1, [r1, #16]
 8002116:	ea4f 5101 	mov.w	r1, r1, lsl #20
 800211a:	4308      	orrs	r0, r1
 800211c:	6879      	ldr	r1, [r7, #4]
 800211e:	6b89      	ldr	r1, [r1, #56]	; 0x38
 8002120:	6949      	ldr	r1, [r1, #20]
 8002122:	ea4f 6101 	mov.w	r1, r1, lsl #24
 8002126:	4308      	orrs	r0, r1
 8002128:	6879      	ldr	r1, [r7, #4]
 800212a:	6b89      	ldr	r1, [r1, #56]	; 0x38
 800212c:	6989      	ldr	r1, [r1, #24]
 800212e:	4301      	orrs	r1, r0
 8002130:	f843 1022 	str.w	r1, [r3, r2, lsl #2]
 8002134:	e009      	b.n	800214a <FSMC_NORSRAMInit+0x146>
 8002136:	f44f 7382 	mov.w	r3, #260	; 0x104
 800213a:	f2ca 0300 	movt	r3, #40960	; 0xa000
 800213e:	687a      	ldr	r2, [r7, #4]
 8002140:	6812      	ldr	r2, [r2, #0]
 8002142:	f06f 4170 	mvn.w	r1, #4026531840	; 0xf0000000
 8002146:	f843 1022 	str.w	r1, [r3, r2, lsl #2]
 800214a:	f107 070c 	add.w	r7, r7, #12
 800214e:	46bd      	mov	sp, r7
 8002150:	bc80      	pop	{r7}
 8002152:	4770      	bx	lr

08002154 <FSMC_NORSRAMCmd>:
 8002154:	b480      	push	{r7}
 8002156:	b083      	sub	sp, #12
 8002158:	af00      	add	r7, sp, #0
 800215a:	6078      	str	r0, [r7, #4]
 800215c:	460b      	mov	r3, r1
 800215e:	70fb      	strb	r3, [r7, #3]
 8002160:	78fb      	ldrb	r3, [r7, #3]
 8002162:	2b00      	cmp	r3, #0
 8002164:	d00c      	beq.n	8002180 <FSMC_NORSRAMCmd+0x2c>
 8002166:	f04f 4320 	mov.w	r3, #2684354560	; 0xa0000000
 800216a:	f04f 4220 	mov.w	r2, #2684354560	; 0xa0000000
 800216e:	6879      	ldr	r1, [r7, #4]
 8002170:	f852 2021 	ldr.w	r2, [r2, r1, lsl #2]
 8002174:	f042 0101 	orr.w	r1, r2, #1
 8002178:	687a      	ldr	r2, [r7, #4]
 800217a:	f843 1022 	str.w	r1, [r3, r2, lsl #2]
 800217e:	e00e      	b.n	800219e <FSMC_NORSRAMCmd+0x4a>
 8002180:	f04f 4220 	mov.w	r2, #2684354560	; 0xa0000000
 8002184:	f04f 4320 	mov.w	r3, #2684354560	; 0xa0000000
 8002188:	6879      	ldr	r1, [r7, #4]
 800218a:	f853 1021 	ldr.w	r1, [r3, r1, lsl #2]
 800218e:	f64f 73fe 	movw	r3, #65534	; 0xfffe
 8002192:	f2c0 030f 	movt	r3, #15
 8002196:	400b      	ands	r3, r1
 8002198:	6879      	ldr	r1, [r7, #4]
 800219a:	f842 3021 	str.w	r3, [r2, r1, lsl #2]
 800219e:	f107 070c 	add.w	r7, r7, #12
 80021a2:	46bd      	mov	sp, r7
 80021a4:	bc80      	pop	{r7}
 80021a6:	4770      	bx	lr

080021a8 <EXTI_Init>:
 80021a8:	b480      	push	{r7}
 80021aa:	b085      	sub	sp, #20
 80021ac:	af00      	add	r7, sp, #0
 80021ae:	6078      	str	r0, [r7, #4]
 80021b0:	f04f 0300 	mov.w	r3, #0
 80021b4:	60fb      	str	r3, [r7, #12]
 80021b6:	f44f 5370 	mov.w	r3, #15360	; 0x3c00
 80021ba:	f2c4 0301 	movt	r3, #16385	; 0x4001
 80021be:	60fb      	str	r3, [r7, #12]
 80021c0:	687b      	ldr	r3, [r7, #4]
 80021c2:	799b      	ldrb	r3, [r3, #6]
 80021c4:	2b00      	cmp	r3, #0
 80021c6:	d078      	beq.n	80022ba <EXTI_Init+0x112>
 80021c8:	f44f 5370 	mov.w	r3, #15360	; 0x3c00
 80021cc:	f2c4 0301 	movt	r3, #16385	; 0x4001
 80021d0:	f44f 5270 	mov.w	r2, #15360	; 0x3c00
 80021d4:	f2c4 0201 	movt	r2, #16385	; 0x4001
 80021d8:	6811      	ldr	r1, [r2, #0]
 80021da:	687a      	ldr	r2, [r7, #4]
 80021dc:	6812      	ldr	r2, [r2, #0]
 80021de:	ea6f 0202 	mvn.w	r2, r2
 80021e2:	400a      	ands	r2, r1
 80021e4:	601a      	str	r2, [r3, #0]
 80021e6:	f44f 5370 	mov.w	r3, #15360	; 0x3c00
 80021ea:	f2c4 0301 	movt	r3, #16385	; 0x4001
 80021ee:	f44f 5270 	mov.w	r2, #15360	; 0x3c00
 80021f2:	f2c4 0201 	movt	r2, #16385	; 0x4001
 80021f6:	6851      	ldr	r1, [r2, #4]
 80021f8:	687a      	ldr	r2, [r7, #4]
 80021fa:	6812      	ldr	r2, [r2, #0]
 80021fc:	ea6f 0202 	mvn.w	r2, r2
 8002200:	400a      	ands	r2, r1
 8002202:	605a      	str	r2, [r3, #4]
 8002204:	687b      	ldr	r3, [r7, #4]
 8002206:	791b      	ldrb	r3, [r3, #4]
 8002208:	68fa      	ldr	r2, [r7, #12]
 800220a:	18d3      	adds	r3, r2, r3
 800220c:	60fb      	str	r3, [r7, #12]
 800220e:	68fb      	ldr	r3, [r7, #12]
 8002210:	68fa      	ldr	r2, [r7, #12]
 8002212:	6811      	ldr	r1, [r2, #0]
 8002214:	687a      	ldr	r2, [r7, #4]
 8002216:	6812      	ldr	r2, [r2, #0]
 8002218:	430a      	orrs	r2, r1
 800221a:	601a      	str	r2, [r3, #0]
 800221c:	f44f 5370 	mov.w	r3, #15360	; 0x3c00
 8002220:	f2c4 0301 	movt	r3, #16385	; 0x4001
 8002224:	f44f 5270 	mov.w	r2, #15360	; 0x3c00
 8002228:	f2c4 0201 	movt	r2, #16385	; 0x4001
 800222c:	6891      	ldr	r1, [r2, #8]
 800222e:	687a      	ldr	r2, [r7, #4]
 8002230:	6812      	ldr	r2, [r2, #0]
 8002232:	ea6f 0202 	mvn.w	r2, r2
 8002236:	400a      	ands	r2, r1
 8002238:	609a      	str	r2, [r3, #8]
 800223a:	f44f 5370 	mov.w	r3, #15360	; 0x3c00
 800223e:	f2c4 0301 	movt	r3, #16385	; 0x4001
 8002242:	f44f 5270 	mov.w	r2, #15360	; 0x3c00
 8002246:	f2c4 0201 	movt	r2, #16385	; 0x4001
 800224a:	68d1      	ldr	r1, [r2, #12]
 800224c:	687a      	ldr	r2, [r7, #4]
 800224e:	6812      	ldr	r2, [r2, #0]
 8002250:	ea6f 0202 	mvn.w	r2, r2
 8002254:	400a      	ands	r2, r1
 8002256:	60da      	str	r2, [r3, #12]
 8002258:	687b      	ldr	r3, [r7, #4]
 800225a:	795b      	ldrb	r3, [r3, #5]
 800225c:	2b10      	cmp	r3, #16
 800225e:	d11a      	bne.n	8002296 <EXTI_Init+0xee>
 8002260:	f44f 5370 	mov.w	r3, #15360	; 0x3c00
 8002264:	f2c4 0301 	movt	r3, #16385	; 0x4001
 8002268:	f44f 5270 	mov.w	r2, #15360	; 0x3c00
 800226c:	f2c4 0201 	movt	r2, #16385	; 0x4001
 8002270:	6891      	ldr	r1, [r2, #8]
 8002272:	687a      	ldr	r2, [r7, #4]
 8002274:	6812      	ldr	r2, [r2, #0]
 8002276:	430a      	orrs	r2, r1
 8002278:	609a      	str	r2, [r3, #8]
 800227a:	f44f 5370 	mov.w	r3, #15360	; 0x3c00
 800227e:	f2c4 0301 	movt	r3, #16385	; 0x4001
 8002282:	f44f 5270 	mov.w	r2, #15360	; 0x3c00
 8002286:	f2c4 0201 	movt	r2, #16385	; 0x4001
 800228a:	68d1      	ldr	r1, [r2, #12]
 800228c:	687a      	ldr	r2, [r7, #4]
 800228e:	6812      	ldr	r2, [r2, #0]
 8002290:	430a      	orrs	r2, r1
 8002292:	60da      	str	r2, [r3, #12]
 8002294:	e01f      	b.n	80022d6 <EXTI_Init+0x12e>
 8002296:	f44f 5370 	mov.w	r3, #15360	; 0x3c00
 800229a:	f2c4 0301 	movt	r3, #16385	; 0x4001
 800229e:	60fb      	str	r3, [r7, #12]
 80022a0:	687b      	ldr	r3, [r7, #4]
 80022a2:	795b      	ldrb	r3, [r3, #5]
 80022a4:	68fa      	ldr	r2, [r7, #12]
 80022a6:	18d3      	adds	r3, r2, r3
 80022a8:	60fb      	str	r3, [r7, #12]
 80022aa:	68fb      	ldr	r3, [r7, #12]
 80022ac:	68fa      	ldr	r2, [r7, #12]
 80022ae:	6811      	ldr	r1, [r2, #0]
 80022b0:	687a      	ldr	r2, [r7, #4]
 80022b2:	6812      	ldr	r2, [r2, #0]
 80022b4:	430a      	orrs	r2, r1
 80022b6:	601a      	str	r2, [r3, #0]
 80022b8:	e00d      	b.n	80022d6 <EXTI_Init+0x12e>
 80022ba:	687b      	ldr	r3, [r7, #4]
 80022bc:	791b      	ldrb	r3, [r3, #4]
 80022be:	68fa      	ldr	r2, [r7, #12]
 80022c0:	18d3      	adds	r3, r2, r3
 80022c2:	60fb      	str	r3, [r7, #12]
 80022c4:	68fb      	ldr	r3, [r7, #12]
 80022c6:	68fa      	ldr	r2, [r7, #12]
 80022c8:	6811      	ldr	r1, [r2, #0]
 80022ca:	687a      	ldr	r2, [r7, #4]
 80022cc:	6812      	ldr	r2, [r2, #0]
 80022ce:	ea6f 0202 	mvn.w	r2, r2
 80022d2:	400a      	ands	r2, r1
 80022d4:	601a      	str	r2, [r3, #0]
 80022d6:	f107 0714 	add.w	r7, r7, #20
 80022da:	46bd      	mov	sp, r7
 80022dc:	bc80      	pop	{r7}
 80022de:	4770      	bx	lr

080022e0 <EXTI_GetITStatus>:
 80022e0:	b480      	push	{r7}
 80022e2:	b085      	sub	sp, #20
 80022e4:	af00      	add	r7, sp, #0
 80022e6:	6078      	str	r0, [r7, #4]
 80022e8:	f04f 0300 	mov.w	r3, #0
 80022ec:	73fb      	strb	r3, [r7, #15]
 80022ee:	f44f 5370 	mov.w	r3, #15360	; 0x3c00
 80022f2:	f2c4 0301 	movt	r3, #16385	; 0x4001
 80022f6:	695a      	ldr	r2, [r3, #20]
 80022f8:	687b      	ldr	r3, [r7, #4]
 80022fa:	4013      	ands	r3, r2
 80022fc:	2b00      	cmp	r3, #0
 80022fe:	d003      	beq.n	8002308 <EXTI_GetITStatus+0x28>
 8002300:	f04f 0301 	mov.w	r3, #1
 8002304:	73fb      	strb	r3, [r7, #15]
 8002306:	e002      	b.n	800230e <EXTI_GetITStatus+0x2e>
 8002308:	f04f 0300 	mov.w	r3, #0
 800230c:	73fb      	strb	r3, [r7, #15]
 800230e:	7bfb      	ldrb	r3, [r7, #15]
 8002310:	4618      	mov	r0, r3
 8002312:	f107 0714 	add.w	r7, r7, #20
 8002316:	46bd      	mov	sp, r7
 8002318:	bc80      	pop	{r7}
 800231a:	4770      	bx	lr

0800231c <EXTI_ClearITPendingBit>:
 800231c:	b480      	push	{r7}
 800231e:	b083      	sub	sp, #12
 8002320:	af00      	add	r7, sp, #0
 8002322:	6078      	str	r0, [r7, #4]
 8002324:	f44f 5370 	mov.w	r3, #15360	; 0x3c00
 8002328:	f2c4 0301 	movt	r3, #16385	; 0x4001
 800232c:	687a      	ldr	r2, [r7, #4]
 800232e:	615a      	str	r2, [r3, #20]
 8002330:	f107 070c 	add.w	r7, r7, #12
 8002334:	46bd      	mov	sp, r7
 8002336:	bc80      	pop	{r7}
 8002338:	4770      	bx	lr
 800233a:	bf00      	nop

0800233c <SSD1963_LLD_Init>:
 800233c:	b580      	push	{r7, lr}
 800233e:	b082      	sub	sp, #8
 8002340:	af00      	add	r7, sp, #0
 8002342:	f04f 0302 	mov.w	r3, #2
 8002346:	717b      	strb	r3, [r7, #5]
 8002348:	f04f 0302 	mov.w	r3, #2
 800234c:	713b      	strb	r3, [r7, #4]
 800234e:	f04f 0300 	mov.w	r3, #0
 8002352:	71fb      	strb	r3, [r7, #7]
 8002354:	f04f 0300 	mov.w	r3, #0
 8002358:	71bb      	strb	r3, [r7, #6]
 800235a:	463b      	mov	r3, r7
 800235c:	f240 1014 	movw	r0, #276	; 0x114
 8002360:	f2c2 0000 	movt	r0, #8192	; 0x2000
 8002364:	4619      	mov	r1, r3
 8002366:	f04f 0202 	mov.w	r2, #2
 800236a:	f7fe ff21 	bl	80011b0 <CARME_GPIO_Init>
 800236e:	f44f 50e0 	mov.w	r0, #7168	; 0x1c00
 8002372:	f2c4 0002 	movt	r0, #16386	; 0x4002
 8002376:	f44f 6180 	mov.w	r1, #1024	; 0x400
 800237a:	f04f 0201 	mov.w	r2, #1
 800237e:	f7ff fda7 	bl	8001ed0 <GPIO_WriteBit>
 8002382:	f107 0708 	add.w	r7, r7, #8
 8002386:	46bd      	mov	sp, r7
 8002388:	bd80      	pop	{r7, pc}
 800238a:	bf00      	nop

0800238c <SSD1963_WriteCommand>:
 800238c:	b480      	push	{r7}
 800238e:	b083      	sub	sp, #12
 8002390:	af00      	add	r7, sp, #0
 8002392:	4603      	mov	r3, r0
 8002394:	80fb      	strh	r3, [r7, #6]
 8002396:	f04f 43d0 	mov.w	r3, #1744830464	; 0x68000000
 800239a:	88fa      	ldrh	r2, [r7, #6]
 800239c:	801a      	strh	r2, [r3, #0]
 800239e:	f107 070c 	add.w	r7, r7, #12
 80023a2:	46bd      	mov	sp, r7
 80023a4:	bc80      	pop	{r7}
 80023a6:	4770      	bx	lr

080023a8 <SSD1963_WriteData>:
 80023a8:	b480      	push	{r7}
 80023aa:	b083      	sub	sp, #12
 80023ac:	af00      	add	r7, sp, #0
 80023ae:	4603      	mov	r3, r0
 80023b0:	80fb      	strh	r3, [r7, #6]
 80023b2:	f04f 43d0 	mov.w	r3, #1744830464	; 0x68000000
 80023b6:	88fa      	ldrh	r2, [r7, #6]
 80023b8:	805a      	strh	r2, [r3, #2]
 80023ba:	f107 070c 	add.w	r7, r7, #12
 80023be:	46bd      	mov	sp, r7
 80023c0:	bc80      	pop	{r7}
 80023c2:	4770      	bx	lr

080023c4 <SSD1963_ReadData>:
 80023c4:	b480      	push	{r7}
 80023c6:	af00      	add	r7, sp, #0
 80023c8:	f04f 43d0 	mov.w	r3, #1744830464	; 0x68000000
 80023cc:	885b      	ldrh	r3, [r3, #2]
 80023ce:	b29b      	uxth	r3, r3
 80023d0:	4618      	mov	r0, r3
 80023d2:	46bd      	mov	sp, r7
 80023d4:	bc80      	pop	{r7}
 80023d6:	4770      	bx	lr

080023d8 <LCD_WriteArea>:
 80023d8:	b590      	push	{r4, r7, lr}
 80023da:	b085      	sub	sp, #20
 80023dc:	af02      	add	r7, sp, #8
 80023de:	80f8      	strh	r0, [r7, #6]
 80023e0:	80b9      	strh	r1, [r7, #4]
 80023e2:	807a      	strh	r2, [r7, #2]
 80023e4:	803b      	strh	r3, [r7, #0]
 80023e6:	88f8      	ldrh	r0, [r7, #6]
 80023e8:	88b9      	ldrh	r1, [r7, #4]
 80023ea:	887a      	ldrh	r2, [r7, #2]
 80023ec:	883b      	ldrh	r3, [r7, #0]
 80023ee:	69bc      	ldr	r4, [r7, #24]
 80023f0:	9400      	str	r4, [sp, #0]
 80023f2:	f7fe fd0d 	bl	8000e10 <SSD1963_WriteArea>
 80023f6:	f107 070c 	add.w	r7, r7, #12
 80023fa:	46bd      	mov	sp, r7
 80023fc:	bd90      	pop	{r4, r7, pc}
 80023fe:	bf00      	nop

08002400 <LCD_DrawChar>:
 8002400:	b590      	push	{r4, r7, lr}
 8002402:	b0d1      	sub	sp, #324	; 0x144
 8002404:	af02      	add	r7, sp, #8
 8002406:	4604      	mov	r4, r0
 8002408:	4608      	mov	r0, r1
 800240a:	4611      	mov	r1, r2
 800240c:	461a      	mov	r2, r3
 800240e:	f107 0306 	add.w	r3, r7, #6
 8002412:	801c      	strh	r4, [r3, #0]
 8002414:	f107 0304 	add.w	r3, r7, #4
 8002418:	8018      	strh	r0, [r3, #0]
 800241a:	f107 0302 	add.w	r3, r7, #2
 800241e:	8019      	strh	r1, [r3, #0]
 8002420:	463b      	mov	r3, r7
 8002422:	801a      	strh	r2, [r3, #0]
 8002424:	f04f 0300 	mov.w	r3, #0
 8002428:	f8c7 3134 	str.w	r3, [r7, #308]	; 0x134
 800242c:	f04f 0300 	mov.w	r3, #0
 8002430:	f8c7 3130 	str.w	r3, [r7, #304]	; 0x130
 8002434:	f04f 0300 	mov.w	r3, #0
 8002438:	f887 312f 	strb.w	r3, [r7, #303]	; 0x12f
 800243c:	f8d7 3148 	ldr.w	r3, [r7, #328]	; 0x148
 8002440:	785b      	ldrb	r3, [r3, #1]
 8002442:	f8c7 3130 	str.w	r3, [r7, #304]	; 0x130
 8002446:	e04a      	b.n	80024de <LCD_DrawChar+0xde>
 8002448:	f04f 0300 	mov.w	r3, #0
 800244c:	f8c7 3134 	str.w	r3, [r7, #308]	; 0x134
 8002450:	e037      	b.n	80024c2 <LCD_DrawChar+0xc2>
 8002452:	f8d7 3148 	ldr.w	r3, [r7, #328]	; 0x148
 8002456:	789b      	ldrb	r3, [r3, #2]
 8002458:	f8d7 2134 	ldr.w	r2, [r7, #308]	; 0x134
 800245c:	fb02 f303 	mul.w	r3, r2, r3
 8002460:	f8d7 214c 	ldr.w	r2, [r7, #332]	; 0x14c
 8002464:	18d3      	adds	r3, r2, r3
 8002466:	f8c7 3128 	str.w	r3, [r7, #296]	; 0x128
 800246a:	f8d7 3128 	ldr.w	r3, [r7, #296]	; 0x128
 800246e:	681a      	ldr	r2, [r3, #0]
 8002470:	f8d7 3130 	ldr.w	r3, [r7, #304]	; 0x130
 8002474:	f103 33ff 	add.w	r3, r3, #4294967295
 8002478:	f04f 0101 	mov.w	r1, #1
 800247c:	fa01 f303 	lsl.w	r3, r1, r3
 8002480:	4013      	ands	r3, r2
 8002482:	2b00      	cmp	r3, #0
 8002484:	d109      	bne.n	800249a <LCD_DrawChar+0x9a>
 8002486:	f897 212f 	ldrb.w	r2, [r7, #303]	; 0x12f
 800248a:	f107 0308 	add.w	r3, r7, #8
 800248e:	f107 0102 	add.w	r1, r7, #2
 8002492:	8809      	ldrh	r1, [r1, #0]
 8002494:	f823 1012 	strh.w	r1, [r3, r2, lsl #1]
 8002498:	e007      	b.n	80024aa <LCD_DrawChar+0xaa>
 800249a:	f897 212f 	ldrb.w	r2, [r7, #303]	; 0x12f
 800249e:	f107 0308 	add.w	r3, r7, #8
 80024a2:	4639      	mov	r1, r7
 80024a4:	8809      	ldrh	r1, [r1, #0]
 80024a6:	f823 1012 	strh.w	r1, [r3, r2, lsl #1]
 80024aa:	f897 312f 	ldrb.w	r3, [r7, #303]	; 0x12f
 80024ae:	f103 0301 	add.w	r3, r3, #1
 80024b2:	f887 312f 	strb.w	r3, [r7, #303]	; 0x12f
 80024b6:	f8d7 3134 	ldr.w	r3, [r7, #308]	; 0x134
 80024ba:	f103 0301 	add.w	r3, r3, #1
 80024be:	f8c7 3134 	str.w	r3, [r7, #308]	; 0x134
 80024c2:	f8d7 3148 	ldr.w	r3, [r7, #328]	; 0x148
 80024c6:	781b      	ldrb	r3, [r3, #0]
 80024c8:	461a      	mov	r2, r3
 80024ca:	f8d7 3134 	ldr.w	r3, [r7, #308]	; 0x134
 80024ce:	429a      	cmp	r2, r3
 80024d0:	d8bf      	bhi.n	8002452 <LCD_DrawChar+0x52>
 80024d2:	f8d7 3130 	ldr.w	r3, [r7, #304]	; 0x130
 80024d6:	f103 33ff 	add.w	r3, r3, #4294967295
 80024da:	f8c7 3130 	str.w	r3, [r7, #304]	; 0x130
 80024de:	f8d7 3130 	ldr.w	r3, [r7, #304]	; 0x130
 80024e2:	2b00      	cmp	r3, #0
 80024e4:	d1b0      	bne.n	8002448 <LCD_DrawChar+0x48>
 80024e6:	f8d7 3148 	ldr.w	r3, [r7, #328]	; 0x148
 80024ea:	781b      	ldrb	r3, [r3, #0]
 80024ec:	461a      	mov	r2, r3
 80024ee:	f107 0306 	add.w	r3, r7, #6
 80024f2:	881b      	ldrh	r3, [r3, #0]
 80024f4:	18d3      	adds	r3, r2, r3
 80024f6:	b29b      	uxth	r3, r3
 80024f8:	f103 33ff 	add.w	r3, r3, #4294967295
 80024fc:	b29a      	uxth	r2, r3
 80024fe:	f8d7 3148 	ldr.w	r3, [r7, #328]	; 0x148
 8002502:	785b      	ldrb	r3, [r3, #1]
 8002504:	4619      	mov	r1, r3
 8002506:	f107 0304 	add.w	r3, r7, #4
 800250a:	881b      	ldrh	r3, [r3, #0]
 800250c:	18cb      	adds	r3, r1, r3
 800250e:	b29b      	uxth	r3, r3
 8002510:	f103 33ff 	add.w	r3, r3, #4294967295
 8002514:	b29b      	uxth	r3, r3
 8002516:	f107 0106 	add.w	r1, r7, #6
 800251a:	8808      	ldrh	r0, [r1, #0]
 800251c:	f107 0104 	add.w	r1, r7, #4
 8002520:	8809      	ldrh	r1, [r1, #0]
 8002522:	f107 0408 	add.w	r4, r7, #8
 8002526:	9400      	str	r4, [sp, #0]
 8002528:	f7ff ff56 	bl	80023d8 <LCD_WriteArea>
 800252c:	f507 779e 	add.w	r7, r7, #316	; 0x13c
 8002530:	46bd      	mov	sp, r7
 8002532:	bd90      	pop	{r4, r7, pc}

08002534 <LCD_SetFont>:
 8002534:	b480      	push	{r7}
 8002536:	b083      	sub	sp, #12
 8002538:	af00      	add	r7, sp, #0
 800253a:	6078      	str	r0, [r7, #4]
 800253c:	f240 1328 	movw	r3, #296	; 0x128
 8002540:	f2c2 0300 	movt	r3, #8192	; 0x2000
 8002544:	687a      	ldr	r2, [r7, #4]
 8002546:	601a      	str	r2, [r3, #0]
 8002548:	f107 070c 	add.w	r7, r7, #12
 800254c:	46bd      	mov	sp, r7
 800254e:	bc80      	pop	{r7}
 8002550:	4770      	bx	lr
 8002552:	bf00      	nop

08002554 <LCD_DisplayCharXY>:
 8002554:	b5b0      	push	{r4, r5, r7, lr}
 8002556:	b084      	sub	sp, #16
 8002558:	af02      	add	r7, sp, #8
 800255a:	4613      	mov	r3, r2
 800255c:	4602      	mov	r2, r0
 800255e:	80fa      	strh	r2, [r7, #6]
 8002560:	460a      	mov	r2, r1
 8002562:	80ba      	strh	r2, [r7, #4]
 8002564:	70fb      	strb	r3, [r7, #3]
 8002566:	78fb      	ldrb	r3, [r7, #3]
 8002568:	f1a3 0320 	sub.w	r3, r3, #32
 800256c:	70fb      	strb	r3, [r7, #3]
 800256e:	f640 1368 	movw	r3, #2408	; 0x968
 8002572:	f2c2 0300 	movt	r3, #8192	; 0x2000
 8002576:	881a      	ldrh	r2, [r3, #0]
 8002578:	f240 1324 	movw	r3, #292	; 0x124
 800257c:	f2c2 0300 	movt	r3, #8192	; 0x2000
 8002580:	881c      	ldrh	r4, [r3, #0]
 8002582:	f240 1328 	movw	r3, #296	; 0x128
 8002586:	f2c2 0300 	movt	r3, #8192	; 0x2000
 800258a:	681d      	ldr	r5, [r3, #0]
 800258c:	f240 1328 	movw	r3, #296	; 0x128
 8002590:	f2c2 0300 	movt	r3, #8192	; 0x2000
 8002594:	681b      	ldr	r3, [r3, #0]
 8002596:	6859      	ldr	r1, [r3, #4]
 8002598:	78f8      	ldrb	r0, [r7, #3]
 800259a:	f240 1328 	movw	r3, #296	; 0x128
 800259e:	f2c2 0300 	movt	r3, #8192	; 0x2000
 80025a2:	681b      	ldr	r3, [r3, #0]
 80025a4:	781b      	ldrb	r3, [r3, #0]
 80025a6:	fb03 f000 	mul.w	r0, r3, r0
 80025aa:	f240 1328 	movw	r3, #296	; 0x128
 80025ae:	f2c2 0300 	movt	r3, #8192	; 0x2000
 80025b2:	681b      	ldr	r3, [r3, #0]
 80025b4:	789b      	ldrb	r3, [r3, #2]
 80025b6:	fb03 f300 	mul.w	r3, r3, r0
 80025ba:	18c8      	adds	r0, r1, r3
 80025bc:	88f9      	ldrh	r1, [r7, #6]
 80025be:	88bb      	ldrh	r3, [r7, #4]
 80025c0:	9500      	str	r5, [sp, #0]
 80025c2:	9001      	str	r0, [sp, #4]
 80025c4:	4608      	mov	r0, r1
 80025c6:	4619      	mov	r1, r3
 80025c8:	4623      	mov	r3, r4
 80025ca:	f7ff ff19 	bl	8002400 <LCD_DrawChar>
 80025ce:	f107 0708 	add.w	r7, r7, #8
 80025d2:	46bd      	mov	sp, r7
 80025d4:	bdb0      	pop	{r4, r5, r7, pc}
 80025d6:	bf00      	nop

080025d8 <LCD_DisplayStringXY>:
 80025d8:	b580      	push	{r7, lr}
 80025da:	b082      	sub	sp, #8
 80025dc:	af00      	add	r7, sp, #0
 80025de:	460b      	mov	r3, r1
 80025e0:	603a      	str	r2, [r7, #0]
 80025e2:	4602      	mov	r2, r0
 80025e4:	80fa      	strh	r2, [r7, #6]
 80025e6:	80bb      	strh	r3, [r7, #4]
 80025e8:	e016      	b.n	8002618 <LCD_DisplayStringXY+0x40>
 80025ea:	683b      	ldr	r3, [r7, #0]
 80025ec:	781b      	ldrb	r3, [r3, #0]
 80025ee:	683a      	ldr	r2, [r7, #0]
 80025f0:	f102 0201 	add.w	r2, r2, #1
 80025f4:	603a      	str	r2, [r7, #0]
 80025f6:	88f9      	ldrh	r1, [r7, #6]
 80025f8:	88ba      	ldrh	r2, [r7, #4]
 80025fa:	4608      	mov	r0, r1
 80025fc:	4611      	mov	r1, r2
 80025fe:	461a      	mov	r2, r3
 8002600:	f7ff ffa8 	bl	8002554 <LCD_DisplayCharXY>
 8002604:	f240 1328 	movw	r3, #296	; 0x128
 8002608:	f2c2 0300 	movt	r3, #8192	; 0x2000
 800260c:	681b      	ldr	r3, [r3, #0]
 800260e:	781b      	ldrb	r3, [r3, #0]
 8002610:	461a      	mov	r2, r3
 8002612:	88fb      	ldrh	r3, [r7, #6]
 8002614:	18d3      	adds	r3, r2, r3
 8002616:	80fb      	strh	r3, [r7, #6]
 8002618:	683b      	ldr	r3, [r7, #0]
 800261a:	781b      	ldrb	r3, [r3, #0]
 800261c:	2b00      	cmp	r3, #0
 800261e:	d1e4      	bne.n	80025ea <LCD_DisplayStringXY+0x12>
 8002620:	f107 0708 	add.w	r7, r7, #8
 8002624:	46bd      	mov	sp, r7
 8002626:	bd80      	pop	{r7, pc}

08002628 <xTaskGenericCreate>:
 8002628:	b580      	push	{r7, lr}
 800262a:	b08a      	sub	sp, #40	; 0x28
 800262c:	af02      	add	r7, sp, #8
 800262e:	60f8      	str	r0, [r7, #12]
 8002630:	60b9      	str	r1, [r7, #8]
 8002632:	603b      	str	r3, [r7, #0]
 8002634:	4613      	mov	r3, r2
 8002636:	80fb      	strh	r3, [r7, #6]
 8002638:	68fb      	ldr	r3, [r7, #12]
 800263a:	2b00      	cmp	r3, #0
 800263c:	d102      	bne.n	8002644 <xTaskGenericCreate+0x1c>
 800263e:	f001 ff4f 	bl	80044e0 <ulPortSetInterruptMask>
 8002642:	e7fe      	b.n	8002642 <xTaskGenericCreate+0x1a>
 8002644:	6abb      	ldr	r3, [r7, #40]	; 0x28
 8002646:	2b04      	cmp	r3, #4
 8002648:	d902      	bls.n	8002650 <xTaskGenericCreate+0x28>
 800264a:	f001 ff49 	bl	80044e0 <ulPortSetInterruptMask>
 800264e:	e7fe      	b.n	800264e <xTaskGenericCreate+0x26>
 8002650:	88fb      	ldrh	r3, [r7, #6]
 8002652:	4618      	mov	r0, r3
 8002654:	6b39      	ldr	r1, [r7, #48]	; 0x30
 8002656:	f000 fe97 	bl	8003388 <prvAllocateTCBAndStack>
 800265a:	61b8      	str	r0, [r7, #24]
 800265c:	69bb      	ldr	r3, [r7, #24]
 800265e:	2b00      	cmp	r3, #0
 8002660:	f000 80a3 	beq.w	80027aa <xTaskGenericCreate+0x182>
 8002664:	69bb      	ldr	r3, [r7, #24]
 8002666:	6b1a      	ldr	r2, [r3, #48]	; 0x30
 8002668:	88fb      	ldrh	r3, [r7, #6]
 800266a:	f103 33ff 	add.w	r3, r3, #4294967295
 800266e:	ea4f 0383 	mov.w	r3, r3, lsl #2
 8002672:	18d3      	adds	r3, r2, r3
 8002674:	617b      	str	r3, [r7, #20]
 8002676:	697b      	ldr	r3, [r7, #20]
 8002678:	f023 0307 	bic.w	r3, r3, #7
 800267c:	617b      	str	r3, [r7, #20]
 800267e:	697b      	ldr	r3, [r7, #20]
 8002680:	f003 0307 	and.w	r3, r3, #7
 8002684:	2b00      	cmp	r3, #0
 8002686:	d002      	beq.n	800268e <xTaskGenericCreate+0x66>
 8002688:	f001 ff2a 	bl	80044e0 <ulPortSetInterruptMask>
 800268c:	e7fe      	b.n	800268c <xTaskGenericCreate+0x64>
 800268e:	88fb      	ldrh	r3, [r7, #6]
 8002690:	9300      	str	r3, [sp, #0]
 8002692:	69b8      	ldr	r0, [r7, #24]
 8002694:	68b9      	ldr	r1, [r7, #8]
 8002696:	6aba      	ldr	r2, [r7, #40]	; 0x28
 8002698:	6b7b      	ldr	r3, [r7, #52]	; 0x34
 800269a:	f000 fd3f 	bl	800311c <prvInitialiseTCBVariables>
 800269e:	6978      	ldr	r0, [r7, #20]
 80026a0:	68f9      	ldr	r1, [r7, #12]
 80026a2:	683a      	ldr	r2, [r7, #0]
 80026a4:	f001 fde6 	bl	8004274 <pxPortInitialiseStack>
 80026a8:	4602      	mov	r2, r0
 80026aa:	69bb      	ldr	r3, [r7, #24]
 80026ac:	601a      	str	r2, [r3, #0]
 80026ae:	6afb      	ldr	r3, [r7, #44]	; 0x2c
 80026b0:	2b00      	cmp	r3, #0
 80026b2:	d002      	beq.n	80026ba <xTaskGenericCreate+0x92>
 80026b4:	6afb      	ldr	r3, [r7, #44]	; 0x2c
 80026b6:	69ba      	ldr	r2, [r7, #24]
 80026b8:	601a      	str	r2, [r3, #0]
 80026ba:	f001 fee1 	bl	8004480 <vPortEnterCritical>
 80026be:	f640 2344 	movw	r3, #2628	; 0xa44
 80026c2:	f2c2 0300 	movt	r3, #8192	; 0x2000
 80026c6:	681b      	ldr	r3, [r3, #0]
 80026c8:	f103 0201 	add.w	r2, r3, #1
 80026cc:	f640 2344 	movw	r3, #2628	; 0xa44
 80026d0:	f2c2 0300 	movt	r3, #8192	; 0x2000
 80026d4:	601a      	str	r2, [r3, #0]
 80026d6:	f640 136c 	movw	r3, #2412	; 0x96c
 80026da:	f2c2 0300 	movt	r3, #8192	; 0x2000
 80026de:	681b      	ldr	r3, [r3, #0]
 80026e0:	2b00      	cmp	r3, #0
 80026e2:	d10f      	bne.n	8002704 <xTaskGenericCreate+0xdc>
 80026e4:	f640 136c 	movw	r3, #2412	; 0x96c
 80026e8:	f2c2 0300 	movt	r3, #8192	; 0x2000
 80026ec:	69ba      	ldr	r2, [r7, #24]
 80026ee:	601a      	str	r2, [r3, #0]
 80026f0:	f640 2344 	movw	r3, #2628	; 0xa44
 80026f4:	f2c2 0300 	movt	r3, #8192	; 0x2000
 80026f8:	681b      	ldr	r3, [r3, #0]
 80026fa:	2b01      	cmp	r3, #1
 80026fc:	d118      	bne.n	8002730 <xTaskGenericCreate+0x108>
 80026fe:	f000 fd5d 	bl	80031bc <prvInitialiseTaskLists>
 8002702:	e015      	b.n	8002730 <xTaskGenericCreate+0x108>
 8002704:	f640 2350 	movw	r3, #2640	; 0xa50
 8002708:	f2c2 0300 	movt	r3, #8192	; 0x2000
 800270c:	681b      	ldr	r3, [r3, #0]
 800270e:	2b00      	cmp	r3, #0
 8002710:	d10e      	bne.n	8002730 <xTaskGenericCreate+0x108>
 8002712:	f640 136c 	movw	r3, #2412	; 0x96c
 8002716:	f2c2 0300 	movt	r3, #8192	; 0x2000
 800271a:	681b      	ldr	r3, [r3, #0]
 800271c:	6ada      	ldr	r2, [r3, #44]	; 0x2c
 800271e:	6abb      	ldr	r3, [r7, #40]	; 0x28
 8002720:	429a      	cmp	r2, r3
 8002722:	d805      	bhi.n	8002730 <xTaskGenericCreate+0x108>
 8002724:	f640 136c 	movw	r3, #2412	; 0x96c
 8002728:	f2c2 0300 	movt	r3, #8192	; 0x2000
 800272c:	69ba      	ldr	r2, [r7, #24]
 800272e:	601a      	str	r2, [r3, #0]
 8002730:	f640 2364 	movw	r3, #2660	; 0xa64
 8002734:	f2c2 0300 	movt	r3, #8192	; 0x2000
 8002738:	681b      	ldr	r3, [r3, #0]
 800273a:	f103 0201 	add.w	r2, r3, #1
 800273e:	f640 2364 	movw	r3, #2660	; 0xa64
 8002742:	f2c2 0300 	movt	r3, #8192	; 0x2000
 8002746:	601a      	str	r2, [r3, #0]
 8002748:	f640 2364 	movw	r3, #2660	; 0xa64
 800274c:	f2c2 0300 	movt	r3, #8192	; 0x2000
 8002750:	681a      	ldr	r2, [r3, #0]
 8002752:	69bb      	ldr	r3, [r7, #24]
 8002754:	645a      	str	r2, [r3, #68]	; 0x44
 8002756:	69bb      	ldr	r3, [r7, #24]
 8002758:	6ada      	ldr	r2, [r3, #44]	; 0x2c
 800275a:	f640 234c 	movw	r3, #2636	; 0xa4c
 800275e:	f2c2 0300 	movt	r3, #8192	; 0x2000
 8002762:	681b      	ldr	r3, [r3, #0]
 8002764:	429a      	cmp	r2, r3
 8002766:	d906      	bls.n	8002776 <xTaskGenericCreate+0x14e>
 8002768:	69bb      	ldr	r3, [r7, #24]
 800276a:	6ada      	ldr	r2, [r3, #44]	; 0x2c
 800276c:	f640 234c 	movw	r3, #2636	; 0xa4c
 8002770:	f2c2 0300 	movt	r3, #8192	; 0x2000
 8002774:	601a      	str	r2, [r3, #0]
 8002776:	69bb      	ldr	r3, [r7, #24]
 8002778:	6ada      	ldr	r2, [r3, #44]	; 0x2c
 800277a:	4613      	mov	r3, r2
 800277c:	ea4f 0383 	mov.w	r3, r3, lsl #2
 8002780:	189b      	adds	r3, r3, r2
 8002782:	ea4f 0383 	mov.w	r3, r3, lsl #2
 8002786:	f640 1270 	movw	r2, #2416	; 0x970
 800278a:	f2c2 0200 	movt	r2, #8192	; 0x2000
 800278e:	189a      	adds	r2, r3, r2
 8002790:	69bb      	ldr	r3, [r7, #24]
 8002792:	f103 0304 	add.w	r3, r3, #4
 8002796:	4610      	mov	r0, r2
 8002798:	4619      	mov	r1, r3
 800279a:	f001 ff77 	bl	800468c <vListInsertEnd>
 800279e:	f04f 0301 	mov.w	r3, #1
 80027a2:	61fb      	str	r3, [r7, #28]
 80027a4:	f001 fe82 	bl	80044ac <vPortExitCritical>
 80027a8:	e002      	b.n	80027b0 <xTaskGenericCreate+0x188>
 80027aa:	f04f 33ff 	mov.w	r3, #4294967295
 80027ae:	61fb      	str	r3, [r7, #28]
 80027b0:	69fb      	ldr	r3, [r7, #28]
 80027b2:	2b01      	cmp	r3, #1
 80027b4:	d111      	bne.n	80027da <xTaskGenericCreate+0x1b2>
 80027b6:	f640 2350 	movw	r3, #2640	; 0xa50
 80027ba:	f2c2 0300 	movt	r3, #8192	; 0x2000
 80027be:	681b      	ldr	r3, [r3, #0]
 80027c0:	2b00      	cmp	r3, #0
 80027c2:	d00a      	beq.n	80027da <xTaskGenericCreate+0x1b2>
 80027c4:	f640 136c 	movw	r3, #2412	; 0x96c
 80027c8:	f2c2 0300 	movt	r3, #8192	; 0x2000
 80027cc:	681b      	ldr	r3, [r3, #0]
 80027ce:	6ada      	ldr	r2, [r3, #44]	; 0x2c
 80027d0:	6abb      	ldr	r3, [r7, #40]	; 0x28
 80027d2:	429a      	cmp	r2, r3
 80027d4:	d201      	bcs.n	80027da <xTaskGenericCreate+0x1b2>
 80027d6:	f001 fe43 	bl	8004460 <vPortYield>
 80027da:	69fb      	ldr	r3, [r7, #28]
 80027dc:	4618      	mov	r0, r3
 80027de:	f107 0720 	add.w	r7, r7, #32
 80027e2:	46bd      	mov	sp, r7
 80027e4:	bd80      	pop	{r7, pc}
 80027e6:	bf00      	nop

080027e8 <vTaskDelay>:
 80027e8:	b580      	push	{r7, lr}
 80027ea:	b084      	sub	sp, #16
 80027ec:	af00      	add	r7, sp, #0
 80027ee:	6078      	str	r0, [r7, #4]
 80027f0:	f04f 0300 	mov.w	r3, #0
 80027f4:	60fb      	str	r3, [r7, #12]
 80027f6:	687b      	ldr	r3, [r7, #4]
 80027f8:	2b00      	cmp	r3, #0
 80027fa:	d019      	beq.n	8002830 <vTaskDelay+0x48>
 80027fc:	f000 f866 	bl	80028cc <vTaskSuspendAll>
 8002800:	f640 2348 	movw	r3, #2632	; 0xa48
 8002804:	f2c2 0300 	movt	r3, #8192	; 0x2000
 8002808:	681a      	ldr	r2, [r3, #0]
 800280a:	687b      	ldr	r3, [r7, #4]
 800280c:	18d3      	adds	r3, r2, r3
 800280e:	60bb      	str	r3, [r7, #8]
 8002810:	f640 136c 	movw	r3, #2412	; 0x96c
 8002814:	f2c2 0300 	movt	r3, #8192	; 0x2000
 8002818:	681b      	ldr	r3, [r3, #0]
 800281a:	f103 0304 	add.w	r3, r3, #4
 800281e:	4618      	mov	r0, r3
 8002820:	f001 ff92 	bl	8004748 <uxListRemove>
 8002824:	68b8      	ldr	r0, [r7, #8]
 8002826:	f000 fd69 	bl	80032fc <prvAddCurrentTaskToDelayedList>
 800282a:	f000 f861 	bl	80028f0 <xTaskResumeAll>
 800282e:	60f8      	str	r0, [r7, #12]
 8002830:	68fb      	ldr	r3, [r7, #12]
 8002832:	2b00      	cmp	r3, #0
 8002834:	d101      	bne.n	800283a <vTaskDelay+0x52>
 8002836:	f001 fe13 	bl	8004460 <vPortYield>
 800283a:	f107 0710 	add.w	r7, r7, #16
 800283e:	46bd      	mov	sp, r7
 8002840:	bd80      	pop	{r7, pc}
 8002842:	bf00      	nop

08002844 <vTaskStartScheduler>:
 8002844:	b580      	push	{r7, lr}
 8002846:	b086      	sub	sp, #24
 8002848:	af04      	add	r7, sp, #16
 800284a:	f04f 0300 	mov.w	r3, #0
 800284e:	9300      	str	r3, [sp, #0]
 8002850:	f04f 0300 	mov.w	r3, #0
 8002854:	9301      	str	r3, [sp, #4]
 8002856:	f04f 0300 	mov.w	r3, #0
 800285a:	9302      	str	r3, [sp, #8]
 800285c:	f04f 0300 	mov.w	r3, #0
 8002860:	9303      	str	r3, [sp, #12]
 8002862:	f243 00f9 	movw	r0, #12537	; 0x30f9
 8002866:	f6c0 0000 	movt	r0, #2048	; 0x800
 800286a:	f644 71f8 	movw	r1, #20472	; 0x4ff8
 800286e:	f6c0 0100 	movt	r1, #2048	; 0x800
 8002872:	f04f 0282 	mov.w	r2, #130	; 0x82
 8002876:	f04f 0300 	mov.w	r3, #0
 800287a:	f7ff fed5 	bl	8002628 <xTaskGenericCreate>
 800287e:	6078      	str	r0, [r7, #4]
 8002880:	687b      	ldr	r3, [r7, #4]
 8002882:	2b01      	cmp	r3, #1
 8002884:	d102      	bne.n	800288c <vTaskStartScheduler+0x48>
 8002886:	f001 ff8b 	bl	80047a0 <xTimerCreateTimerTask>
 800288a:	6078      	str	r0, [r7, #4]
 800288c:	687b      	ldr	r3, [r7, #4]
 800288e:	2b01      	cmp	r3, #1
 8002890:	d112      	bne.n	80028b8 <vTaskStartScheduler+0x74>
 8002892:	f001 fe25 	bl	80044e0 <ulPortSetInterruptMask>
 8002896:	f640 2350 	movw	r3, #2640	; 0xa50
 800289a:	f2c2 0300 	movt	r3, #8192	; 0x2000
 800289e:	f04f 0201 	mov.w	r2, #1
 80028a2:	601a      	str	r2, [r3, #0]
 80028a4:	f640 2348 	movw	r3, #2632	; 0xa48
 80028a8:	f2c2 0300 	movt	r3, #8192	; 0x2000
 80028ac:	f04f 0200 	mov.w	r2, #0
 80028b0:	601a      	str	r2, [r3, #0]
 80028b2:	f001 fd41 	bl	8004338 <xPortStartScheduler>
 80028b6:	e005      	b.n	80028c4 <vTaskStartScheduler+0x80>
 80028b8:	687b      	ldr	r3, [r7, #4]
 80028ba:	2b00      	cmp	r3, #0
 80028bc:	d102      	bne.n	80028c4 <vTaskStartScheduler+0x80>
 80028be:	f001 fe0f 	bl	80044e0 <ulPortSetInterruptMask>
 80028c2:	e7fe      	b.n	80028c2 <vTaskStartScheduler+0x7e>
 80028c4:	f107 0708 	add.w	r7, r7, #8
 80028c8:	46bd      	mov	sp, r7
 80028ca:	bd80      	pop	{r7, pc}

080028cc <vTaskSuspendAll>:
 80028cc:	b480      	push	{r7}
 80028ce:	af00      	add	r7, sp, #0
 80028d0:	f640 2354 	movw	r3, #2644	; 0xa54
 80028d4:	f2c2 0300 	movt	r3, #8192	; 0x2000
 80028d8:	681b      	ldr	r3, [r3, #0]
 80028da:	f103 0201 	add.w	r2, r3, #1
 80028de:	f640 2354 	movw	r3, #2644	; 0xa54
 80028e2:	f2c2 0300 	movt	r3, #8192	; 0x2000
 80028e6:	601a      	str	r2, [r3, #0]
 80028e8:	46bd      	mov	sp, r7
 80028ea:	bc80      	pop	{r7}
 80028ec:	4770      	bx	lr
 80028ee:	bf00      	nop

080028f0 <xTaskResumeAll>:
 80028f0:	b580      	push	{r7, lr}
 80028f2:	b082      	sub	sp, #8
 80028f4:	af00      	add	r7, sp, #0
 80028f6:	f04f 0300 	mov.w	r3, #0
 80028fa:	607b      	str	r3, [r7, #4]
 80028fc:	f640 2354 	movw	r3, #2644	; 0xa54
 8002900:	f2c2 0300 	movt	r3, #8192	; 0x2000
 8002904:	681b      	ldr	r3, [r3, #0]
 8002906:	2b00      	cmp	r3, #0
 8002908:	d102      	bne.n	8002910 <xTaskResumeAll+0x20>
 800290a:	f001 fde9 	bl	80044e0 <ulPortSetInterruptMask>
 800290e:	e7fe      	b.n	800290e <xTaskResumeAll+0x1e>
 8002910:	f001 fdb6 	bl	8004480 <vPortEnterCritical>
 8002914:	f640 2354 	movw	r3, #2644	; 0xa54
 8002918:	f2c2 0300 	movt	r3, #8192	; 0x2000
 800291c:	681b      	ldr	r3, [r3, #0]
 800291e:	f103 32ff 	add.w	r2, r3, #4294967295
 8002922:	f640 2354 	movw	r3, #2644	; 0xa54
 8002926:	f2c2 0300 	movt	r3, #8192	; 0x2000
 800292a:	601a      	str	r2, [r3, #0]
 800292c:	f640 2354 	movw	r3, #2644	; 0xa54
 8002930:	f2c2 0300 	movt	r3, #8192	; 0x2000
 8002934:	681b      	ldr	r3, [r3, #0]
 8002936:	2b00      	cmp	r3, #0
 8002938:	f040 808b 	bne.w	8002a52 <xTaskResumeAll+0x162>
 800293c:	f640 2344 	movw	r3, #2628	; 0xa44
 8002940:	f2c2 0300 	movt	r3, #8192	; 0x2000
 8002944:	681b      	ldr	r3, [r3, #0]
 8002946:	2b00      	cmp	r3, #0
 8002948:	f000 8083 	beq.w	8002a52 <xTaskResumeAll+0x162>
 800294c:	e047      	b.n	80029de <xTaskResumeAll+0xee>
 800294e:	f640 2304 	movw	r3, #2564	; 0xa04
 8002952:	f2c2 0300 	movt	r3, #8192	; 0x2000
 8002956:	68db      	ldr	r3, [r3, #12]
 8002958:	68db      	ldr	r3, [r3, #12]
 800295a:	603b      	str	r3, [r7, #0]
 800295c:	683b      	ldr	r3, [r7, #0]
 800295e:	f103 0318 	add.w	r3, r3, #24
 8002962:	4618      	mov	r0, r3
 8002964:	f001 fef0 	bl	8004748 <uxListRemove>
 8002968:	683b      	ldr	r3, [r7, #0]
 800296a:	f103 0304 	add.w	r3, r3, #4
 800296e:	4618      	mov	r0, r3
 8002970:	f001 feea 	bl	8004748 <uxListRemove>
 8002974:	683b      	ldr	r3, [r7, #0]
 8002976:	6ada      	ldr	r2, [r3, #44]	; 0x2c
 8002978:	f640 234c 	movw	r3, #2636	; 0xa4c
 800297c:	f2c2 0300 	movt	r3, #8192	; 0x2000
 8002980:	681b      	ldr	r3, [r3, #0]
 8002982:	429a      	cmp	r2, r3
 8002984:	d906      	bls.n	8002994 <xTaskResumeAll+0xa4>
 8002986:	683b      	ldr	r3, [r7, #0]
 8002988:	6ada      	ldr	r2, [r3, #44]	; 0x2c
 800298a:	f640 234c 	movw	r3, #2636	; 0xa4c
 800298e:	f2c2 0300 	movt	r3, #8192	; 0x2000
 8002992:	601a      	str	r2, [r3, #0]
 8002994:	683b      	ldr	r3, [r7, #0]
 8002996:	6ada      	ldr	r2, [r3, #44]	; 0x2c
 8002998:	4613      	mov	r3, r2
 800299a:	ea4f 0383 	mov.w	r3, r3, lsl #2
 800299e:	189b      	adds	r3, r3, r2
 80029a0:	ea4f 0383 	mov.w	r3, r3, lsl #2
 80029a4:	f640 1270 	movw	r2, #2416	; 0x970
 80029a8:	f2c2 0200 	movt	r2, #8192	; 0x2000
 80029ac:	189a      	adds	r2, r3, r2
 80029ae:	683b      	ldr	r3, [r7, #0]
 80029b0:	f103 0304 	add.w	r3, r3, #4
 80029b4:	4610      	mov	r0, r2
 80029b6:	4619      	mov	r1, r3
 80029b8:	f001 fe68 	bl	800468c <vListInsertEnd>
 80029bc:	683b      	ldr	r3, [r7, #0]
 80029be:	6ada      	ldr	r2, [r3, #44]	; 0x2c
 80029c0:	f640 136c 	movw	r3, #2412	; 0x96c
 80029c4:	f2c2 0300 	movt	r3, #8192	; 0x2000
 80029c8:	681b      	ldr	r3, [r3, #0]
 80029ca:	6adb      	ldr	r3, [r3, #44]	; 0x2c
 80029cc:	429a      	cmp	r2, r3
 80029ce:	d306      	bcc.n	80029de <xTaskResumeAll+0xee>
 80029d0:	f640 235c 	movw	r3, #2652	; 0xa5c
 80029d4:	f2c2 0300 	movt	r3, #8192	; 0x2000
 80029d8:	f04f 0201 	mov.w	r2, #1
 80029dc:	601a      	str	r2, [r3, #0]
 80029de:	f640 2304 	movw	r3, #2564	; 0xa04
 80029e2:	f2c2 0300 	movt	r3, #8192	; 0x2000
 80029e6:	681b      	ldr	r3, [r3, #0]
 80029e8:	2b00      	cmp	r3, #0
 80029ea:	d1b0      	bne.n	800294e <xTaskResumeAll+0x5e>
 80029ec:	f640 2358 	movw	r3, #2648	; 0xa58
 80029f0:	f2c2 0300 	movt	r3, #8192	; 0x2000
 80029f4:	681b      	ldr	r3, [r3, #0]
 80029f6:	2b00      	cmp	r3, #0
 80029f8:	d01f      	beq.n	8002a3a <xTaskResumeAll+0x14a>
 80029fa:	e017      	b.n	8002a2c <xTaskResumeAll+0x13c>
 80029fc:	f000 f846 	bl	8002a8c <xTaskIncrementTick>
 8002a00:	4603      	mov	r3, r0
 8002a02:	2b00      	cmp	r3, #0
 8002a04:	d006      	beq.n	8002a14 <xTaskResumeAll+0x124>
 8002a06:	f640 235c 	movw	r3, #2652	; 0xa5c
 8002a0a:	f2c2 0300 	movt	r3, #8192	; 0x2000
 8002a0e:	f04f 0201 	mov.w	r2, #1
 8002a12:	601a      	str	r2, [r3, #0]
 8002a14:	f640 2358 	movw	r3, #2648	; 0xa58
 8002a18:	f2c2 0300 	movt	r3, #8192	; 0x2000
 8002a1c:	681b      	ldr	r3, [r3, #0]
 8002a1e:	f103 32ff 	add.w	r2, r3, #4294967295
 8002a22:	f640 2358 	movw	r3, #2648	; 0xa58
 8002a26:	f2c2 0300 	movt	r3, #8192	; 0x2000
 8002a2a:	601a      	str	r2, [r3, #0]
 8002a2c:	f640 2358 	movw	r3, #2648	; 0xa58
 8002a30:	f2c2 0300 	movt	r3, #8192	; 0x2000
 8002a34:	681b      	ldr	r3, [r3, #0]
 8002a36:	2b00      	cmp	r3, #0
 8002a38:	d1e0      	bne.n	80029fc <xTaskResumeAll+0x10c>
 8002a3a:	f640 235c 	movw	r3, #2652	; 0xa5c
 8002a3e:	f2c2 0300 	movt	r3, #8192	; 0x2000
 8002a42:	681b      	ldr	r3, [r3, #0]
 8002a44:	2b01      	cmp	r3, #1
 8002a46:	d104      	bne.n	8002a52 <xTaskResumeAll+0x162>
 8002a48:	f04f 0301 	mov.w	r3, #1
 8002a4c:	607b      	str	r3, [r7, #4]
 8002a4e:	f001 fd07 	bl	8004460 <vPortYield>
 8002a52:	f001 fd2b 	bl	80044ac <vPortExitCritical>
 8002a56:	687b      	ldr	r3, [r7, #4]
 8002a58:	4618      	mov	r0, r3
 8002a5a:	f107 0708 	add.w	r7, r7, #8
 8002a5e:	46bd      	mov	sp, r7
 8002a60:	bd80      	pop	{r7, pc}
 8002a62:	bf00      	nop

08002a64 <xTaskGetTickCount>:
 8002a64:	b580      	push	{r7, lr}
 8002a66:	b082      	sub	sp, #8
 8002a68:	af00      	add	r7, sp, #0
 8002a6a:	f001 fd09 	bl	8004480 <vPortEnterCritical>
 8002a6e:	f640 2348 	movw	r3, #2632	; 0xa48
 8002a72:	f2c2 0300 	movt	r3, #8192	; 0x2000
 8002a76:	681b      	ldr	r3, [r3, #0]
 8002a78:	607b      	str	r3, [r7, #4]
 8002a7a:	f001 fd17 	bl	80044ac <vPortExitCritical>
 8002a7e:	687b      	ldr	r3, [r7, #4]
 8002a80:	4618      	mov	r0, r3
 8002a82:	f107 0708 	add.w	r7, r7, #8
 8002a86:	46bd      	mov	sp, r7
 8002a88:	bd80      	pop	{r7, pc}
 8002a8a:	bf00      	nop

08002a8c <xTaskIncrementTick>:
 8002a8c:	b580      	push	{r7, lr}
 8002a8e:	b086      	sub	sp, #24
 8002a90:	af00      	add	r7, sp, #0
 8002a92:	f04f 0300 	mov.w	r3, #0
 8002a96:	617b      	str	r3, [r7, #20]
 8002a98:	f640 2354 	movw	r3, #2644	; 0xa54
 8002a9c:	f2c2 0300 	movt	r3, #8192	; 0x2000
 8002aa0:	681b      	ldr	r3, [r3, #0]
 8002aa2:	2b00      	cmp	r3, #0
 8002aa4:	f040 80f9 	bne.w	8002c9a <xTaskIncrementTick+0x20e>
 8002aa8:	f640 2348 	movw	r3, #2632	; 0xa48
 8002aac:	f2c2 0300 	movt	r3, #8192	; 0x2000
 8002ab0:	681b      	ldr	r3, [r3, #0]
 8002ab2:	f103 0201 	add.w	r2, r3, #1
 8002ab6:	f640 2348 	movw	r3, #2632	; 0xa48
 8002aba:	f2c2 0300 	movt	r3, #8192	; 0x2000
 8002abe:	601a      	str	r2, [r3, #0]
 8002ac0:	f640 2348 	movw	r3, #2632	; 0xa48
 8002ac4:	f2c2 0300 	movt	r3, #8192	; 0x2000
 8002ac8:	681b      	ldr	r3, [r3, #0]
 8002aca:	613b      	str	r3, [r7, #16]
 8002acc:	693b      	ldr	r3, [r7, #16]
 8002ace:	2b00      	cmp	r3, #0
 8002ad0:	d152      	bne.n	8002b78 <xTaskIncrementTick+0xec>
 8002ad2:	f640 13fc 	movw	r3, #2556	; 0x9fc
 8002ad6:	f2c2 0300 	movt	r3, #8192	; 0x2000
 8002ada:	681b      	ldr	r3, [r3, #0]
 8002adc:	681b      	ldr	r3, [r3, #0]
 8002ade:	2b00      	cmp	r3, #0
 8002ae0:	d002      	beq.n	8002ae8 <xTaskIncrementTick+0x5c>
 8002ae2:	f001 fcfd 	bl	80044e0 <ulPortSetInterruptMask>
 8002ae6:	e7fe      	b.n	8002ae6 <xTaskIncrementTick+0x5a>
 8002ae8:	f640 13fc 	movw	r3, #2556	; 0x9fc
 8002aec:	f2c2 0300 	movt	r3, #8192	; 0x2000
 8002af0:	681b      	ldr	r3, [r3, #0]
 8002af2:	60fb      	str	r3, [r7, #12]
 8002af4:	f640 2300 	movw	r3, #2560	; 0xa00
 8002af8:	f2c2 0300 	movt	r3, #8192	; 0x2000
 8002afc:	681a      	ldr	r2, [r3, #0]
 8002afe:	f640 13fc 	movw	r3, #2556	; 0x9fc
 8002b02:	f2c2 0300 	movt	r3, #8192	; 0x2000
 8002b06:	601a      	str	r2, [r3, #0]
 8002b08:	f640 2300 	movw	r3, #2560	; 0xa00
 8002b0c:	f2c2 0300 	movt	r3, #8192	; 0x2000
 8002b10:	68fa      	ldr	r2, [r7, #12]
 8002b12:	601a      	str	r2, [r3, #0]
 8002b14:	f640 2360 	movw	r3, #2656	; 0xa60
 8002b18:	f2c2 0300 	movt	r3, #8192	; 0x2000
 8002b1c:	681b      	ldr	r3, [r3, #0]
 8002b1e:	f103 0201 	add.w	r2, r3, #1
 8002b22:	f640 2360 	movw	r3, #2656	; 0xa60
 8002b26:	f2c2 0300 	movt	r3, #8192	; 0x2000
 8002b2a:	601a      	str	r2, [r3, #0]
 8002b2c:	f640 13fc 	movw	r3, #2556	; 0x9fc
 8002b30:	f2c2 0300 	movt	r3, #8192	; 0x2000
 8002b34:	681b      	ldr	r3, [r3, #0]
 8002b36:	681b      	ldr	r3, [r3, #0]
 8002b38:	2b00      	cmp	r3, #0
 8002b3a:	d102      	bne.n	8002b42 <xTaskIncrementTick+0xb6>
 8002b3c:	f04f 0301 	mov.w	r3, #1
 8002b40:	e001      	b.n	8002b46 <xTaskIncrementTick+0xba>
 8002b42:	f04f 0300 	mov.w	r3, #0
 8002b46:	2b00      	cmp	r3, #0
 8002b48:	d007      	beq.n	8002b5a <xTaskIncrementTick+0xce>
 8002b4a:	f640 1308 	movw	r3, #2312	; 0x908
 8002b4e:	f2c2 0300 	movt	r3, #8192	; 0x2000
 8002b52:	f04f 32ff 	mov.w	r2, #4294967295
 8002b56:	601a      	str	r2, [r3, #0]
 8002b58:	e00e      	b.n	8002b78 <xTaskIncrementTick+0xec>
 8002b5a:	f640 13fc 	movw	r3, #2556	; 0x9fc
 8002b5e:	f2c2 0300 	movt	r3, #8192	; 0x2000
 8002b62:	681b      	ldr	r3, [r3, #0]
 8002b64:	68db      	ldr	r3, [r3, #12]
 8002b66:	68db      	ldr	r3, [r3, #12]
 8002b68:	60bb      	str	r3, [r7, #8]
 8002b6a:	68bb      	ldr	r3, [r7, #8]
 8002b6c:	685a      	ldr	r2, [r3, #4]
 8002b6e:	f640 1308 	movw	r3, #2312	; 0x908
 8002b72:	f2c2 0300 	movt	r3, #8192	; 0x2000
 8002b76:	601a      	str	r2, [r3, #0]
 8002b78:	f640 1308 	movw	r3, #2312	; 0x908
 8002b7c:	f2c2 0300 	movt	r3, #8192	; 0x2000
 8002b80:	681b      	ldr	r3, [r3, #0]
 8002b82:	693a      	ldr	r2, [r7, #16]
 8002b84:	429a      	cmp	r2, r3
 8002b86:	d370      	bcc.n	8002c6a <xTaskIncrementTick+0x1de>
 8002b88:	e000      	b.n	8002b8c <xTaskIncrementTick+0x100>
 8002b8a:	bf00      	nop
 8002b8c:	f640 13fc 	movw	r3, #2556	; 0x9fc
 8002b90:	f2c2 0300 	movt	r3, #8192	; 0x2000
 8002b94:	681b      	ldr	r3, [r3, #0]
 8002b96:	681b      	ldr	r3, [r3, #0]
 8002b98:	2b00      	cmp	r3, #0
 8002b9a:	d102      	bne.n	8002ba2 <xTaskIncrementTick+0x116>
 8002b9c:	f04f 0301 	mov.w	r3, #1
 8002ba0:	e001      	b.n	8002ba6 <xTaskIncrementTick+0x11a>
 8002ba2:	f04f 0300 	mov.w	r3, #0
 8002ba6:	2b00      	cmp	r3, #0
 8002ba8:	d007      	beq.n	8002bba <xTaskIncrementTick+0x12e>
 8002baa:	f640 1308 	movw	r3, #2312	; 0x908
 8002bae:	f2c2 0300 	movt	r3, #8192	; 0x2000
 8002bb2:	f04f 32ff 	mov.w	r2, #4294967295
 8002bb6:	601a      	str	r2, [r3, #0]
 8002bb8:	e057      	b.n	8002c6a <xTaskIncrementTick+0x1de>
 8002bba:	f640 13fc 	movw	r3, #2556	; 0x9fc
 8002bbe:	f2c2 0300 	movt	r3, #8192	; 0x2000
 8002bc2:	681b      	ldr	r3, [r3, #0]
 8002bc4:	68db      	ldr	r3, [r3, #12]
 8002bc6:	68db      	ldr	r3, [r3, #12]
 8002bc8:	60bb      	str	r3, [r7, #8]
 8002bca:	68bb      	ldr	r3, [r7, #8]
 8002bcc:	685b      	ldr	r3, [r3, #4]
 8002bce:	607b      	str	r3, [r7, #4]
 8002bd0:	693a      	ldr	r2, [r7, #16]
 8002bd2:	687b      	ldr	r3, [r7, #4]
 8002bd4:	429a      	cmp	r2, r3
 8002bd6:	d206      	bcs.n	8002be6 <xTaskIncrementTick+0x15a>
 8002bd8:	f640 1308 	movw	r3, #2312	; 0x908
 8002bdc:	f2c2 0300 	movt	r3, #8192	; 0x2000
 8002be0:	687a      	ldr	r2, [r7, #4]
 8002be2:	601a      	str	r2, [r3, #0]
 8002be4:	e041      	b.n	8002c6a <xTaskIncrementTick+0x1de>
 8002be6:	68bb      	ldr	r3, [r7, #8]
 8002be8:	f103 0304 	add.w	r3, r3, #4
 8002bec:	4618      	mov	r0, r3
 8002bee:	f001 fdab 	bl	8004748 <uxListRemove>
 8002bf2:	68bb      	ldr	r3, [r7, #8]
 8002bf4:	6a9b      	ldr	r3, [r3, #40]	; 0x28
 8002bf6:	2b00      	cmp	r3, #0
 8002bf8:	d005      	beq.n	8002c06 <xTaskIncrementTick+0x17a>
 8002bfa:	68bb      	ldr	r3, [r7, #8]
 8002bfc:	f103 0318 	add.w	r3, r3, #24
 8002c00:	4618      	mov	r0, r3
 8002c02:	f001 fda1 	bl	8004748 <uxListRemove>
 8002c06:	68bb      	ldr	r3, [r7, #8]
 8002c08:	6ada      	ldr	r2, [r3, #44]	; 0x2c
 8002c0a:	f640 234c 	movw	r3, #2636	; 0xa4c
 8002c0e:	f2c2 0300 	movt	r3, #8192	; 0x2000
 8002c12:	681b      	ldr	r3, [r3, #0]
 8002c14:	429a      	cmp	r2, r3
 8002c16:	d906      	bls.n	8002c26 <xTaskIncrementTick+0x19a>
 8002c18:	68bb      	ldr	r3, [r7, #8]
 8002c1a:	6ada      	ldr	r2, [r3, #44]	; 0x2c
 8002c1c:	f640 234c 	movw	r3, #2636	; 0xa4c
 8002c20:	f2c2 0300 	movt	r3, #8192	; 0x2000
 8002c24:	601a      	str	r2, [r3, #0]
 8002c26:	68bb      	ldr	r3, [r7, #8]
 8002c28:	6ada      	ldr	r2, [r3, #44]	; 0x2c
 8002c2a:	4613      	mov	r3, r2
 8002c2c:	ea4f 0383 	mov.w	r3, r3, lsl #2
 8002c30:	189b      	adds	r3, r3, r2
 8002c32:	ea4f 0383 	mov.w	r3, r3, lsl #2
 8002c36:	f640 1270 	movw	r2, #2416	; 0x970
 8002c3a:	f2c2 0200 	movt	r2, #8192	; 0x2000
 8002c3e:	189a      	adds	r2, r3, r2
 8002c40:	68bb      	ldr	r3, [r7, #8]
 8002c42:	f103 0304 	add.w	r3, r3, #4
 8002c46:	4610      	mov	r0, r2
 8002c48:	4619      	mov	r1, r3
 8002c4a:	f001 fd1f 	bl	800468c <vListInsertEnd>
 8002c4e:	68bb      	ldr	r3, [r7, #8]
 8002c50:	6ada      	ldr	r2, [r3, #44]	; 0x2c
 8002c52:	f640 136c 	movw	r3, #2412	; 0x96c
 8002c56:	f2c2 0300 	movt	r3, #8192	; 0x2000
 8002c5a:	681b      	ldr	r3, [r3, #0]
 8002c5c:	6adb      	ldr	r3, [r3, #44]	; 0x2c
 8002c5e:	429a      	cmp	r2, r3
 8002c60:	d393      	bcc.n	8002b8a <xTaskIncrementTick+0xfe>
 8002c62:	f04f 0301 	mov.w	r3, #1
 8002c66:	617b      	str	r3, [r7, #20]
 8002c68:	e78f      	b.n	8002b8a <xTaskIncrementTick+0xfe>
 8002c6a:	f640 136c 	movw	r3, #2412	; 0x96c
 8002c6e:	f2c2 0300 	movt	r3, #8192	; 0x2000
 8002c72:	681b      	ldr	r3, [r3, #0]
 8002c74:	6ad9      	ldr	r1, [r3, #44]	; 0x2c
 8002c76:	f640 1270 	movw	r2, #2416	; 0x970
 8002c7a:	f2c2 0200 	movt	r2, #8192	; 0x2000
 8002c7e:	460b      	mov	r3, r1
 8002c80:	ea4f 0383 	mov.w	r3, r3, lsl #2
 8002c84:	185b      	adds	r3, r3, r1
 8002c86:	ea4f 0383 	mov.w	r3, r3, lsl #2
 8002c8a:	18d3      	adds	r3, r2, r3
 8002c8c:	681b      	ldr	r3, [r3, #0]
 8002c8e:	2b01      	cmp	r3, #1
 8002c90:	d90f      	bls.n	8002cb2 <xTaskIncrementTick+0x226>
 8002c92:	f04f 0301 	mov.w	r3, #1
 8002c96:	617b      	str	r3, [r7, #20]
 8002c98:	e00b      	b.n	8002cb2 <xTaskIncrementTick+0x226>
 8002c9a:	f640 2358 	movw	r3, #2648	; 0xa58
 8002c9e:	f2c2 0300 	movt	r3, #8192	; 0x2000
 8002ca2:	681b      	ldr	r3, [r3, #0]
 8002ca4:	f103 0201 	add.w	r2, r3, #1
 8002ca8:	f640 2358 	movw	r3, #2648	; 0xa58
 8002cac:	f2c2 0300 	movt	r3, #8192	; 0x2000
 8002cb0:	601a      	str	r2, [r3, #0]
 8002cb2:	f640 235c 	movw	r3, #2652	; 0xa5c
 8002cb6:	f2c2 0300 	movt	r3, #8192	; 0x2000
 8002cba:	681b      	ldr	r3, [r3, #0]
 8002cbc:	2b00      	cmp	r3, #0
 8002cbe:	d002      	beq.n	8002cc6 <xTaskIncrementTick+0x23a>
 8002cc0:	f04f 0301 	mov.w	r3, #1
 8002cc4:	617b      	str	r3, [r7, #20]
 8002cc6:	697b      	ldr	r3, [r7, #20]
 8002cc8:	4618      	mov	r0, r3
 8002cca:	f107 0718 	add.w	r7, r7, #24
 8002cce:	46bd      	mov	sp, r7
 8002cd0:	bd80      	pop	{r7, pc}
 8002cd2:	bf00      	nop

08002cd4 <vTaskSwitchContext>:
 8002cd4:	b580      	push	{r7, lr}
 8002cd6:	b082      	sub	sp, #8
 8002cd8:	af00      	add	r7, sp, #0
 8002cda:	f640 2354 	movw	r3, #2644	; 0xa54
 8002cde:	f2c2 0300 	movt	r3, #8192	; 0x2000
 8002ce2:	681b      	ldr	r3, [r3, #0]
 8002ce4:	2b00      	cmp	r3, #0
 8002ce6:	d007      	beq.n	8002cf8 <vTaskSwitchContext+0x24>
 8002ce8:	f640 235c 	movw	r3, #2652	; 0xa5c
 8002cec:	f2c2 0300 	movt	r3, #8192	; 0x2000
 8002cf0:	f04f 0201 	mov.w	r2, #1
 8002cf4:	601a      	str	r2, [r3, #0]
 8002cf6:	e09a      	b.n	8002e2e <vTaskSwitchContext+0x15a>
 8002cf8:	f640 235c 	movw	r3, #2652	; 0xa5c
 8002cfc:	f2c2 0300 	movt	r3, #8192	; 0x2000
 8002d00:	f04f 0200 	mov.w	r2, #0
 8002d04:	601a      	str	r2, [r3, #0]
 8002d06:	f640 136c 	movw	r3, #2412	; 0x96c
 8002d0a:	f2c2 0300 	movt	r3, #8192	; 0x2000
 8002d0e:	681b      	ldr	r3, [r3, #0]
 8002d10:	681a      	ldr	r2, [r3, #0]
 8002d12:	f640 136c 	movw	r3, #2412	; 0x96c
 8002d16:	f2c2 0300 	movt	r3, #8192	; 0x2000
 8002d1a:	681b      	ldr	r3, [r3, #0]
 8002d1c:	6b1b      	ldr	r3, [r3, #48]	; 0x30
 8002d1e:	429a      	cmp	r2, r3
 8002d20:	d80f      	bhi.n	8002d42 <vTaskSwitchContext+0x6e>
 8002d22:	f640 136c 	movw	r3, #2412	; 0x96c
 8002d26:	f2c2 0300 	movt	r3, #8192	; 0x2000
 8002d2a:	681a      	ldr	r2, [r3, #0]
 8002d2c:	f640 136c 	movw	r3, #2412	; 0x96c
 8002d30:	f2c2 0300 	movt	r3, #8192	; 0x2000
 8002d34:	681b      	ldr	r3, [r3, #0]
 8002d36:	f103 0334 	add.w	r3, r3, #52	; 0x34
 8002d3a:	4610      	mov	r0, r2
 8002d3c:	4619      	mov	r1, r3
 8002d3e:	f7fd fa9f 	bl	8000280 <ADC_IRQHandler>
 8002d42:	f640 136c 	movw	r3, #2412	; 0x96c
 8002d46:	f2c2 0300 	movt	r3, #8192	; 0x2000
 8002d4a:	681b      	ldr	r3, [r3, #0]
 8002d4c:	6b1b      	ldr	r3, [r3, #48]	; 0x30
 8002d4e:	4618      	mov	r0, r3
 8002d50:	f245 010c 	movw	r1, #20492	; 0x500c
 8002d54:	f6c0 0100 	movt	r1, #2048	; 0x800
 8002d58:	f04f 0214 	mov.w	r2, #20
 8002d5c:	f002 f806 	bl	8004d6c <memcmp>
 8002d60:	4603      	mov	r3, r0
 8002d62:	2b00      	cmp	r3, #0
 8002d64:	d026      	beq.n	8002db4 <vTaskSwitchContext+0xe0>
 8002d66:	f640 136c 	movw	r3, #2412	; 0x96c
 8002d6a:	f2c2 0300 	movt	r3, #8192	; 0x2000
 8002d6e:	681a      	ldr	r2, [r3, #0]
 8002d70:	f640 136c 	movw	r3, #2412	; 0x96c
 8002d74:	f2c2 0300 	movt	r3, #8192	; 0x2000
 8002d78:	681b      	ldr	r3, [r3, #0]
 8002d7a:	f103 0334 	add.w	r3, r3, #52	; 0x34
 8002d7e:	4610      	mov	r0, r2
 8002d80:	4619      	mov	r1, r3
 8002d82:	f7fd fa7d 	bl	8000280 <ADC_IRQHandler>
 8002d86:	e015      	b.n	8002db4 <vTaskSwitchContext+0xe0>
 8002d88:	f640 234c 	movw	r3, #2636	; 0xa4c
 8002d8c:	f2c2 0300 	movt	r3, #8192	; 0x2000
 8002d90:	681b      	ldr	r3, [r3, #0]
 8002d92:	2b00      	cmp	r3, #0
 8002d94:	d102      	bne.n	8002d9c <vTaskSwitchContext+0xc8>
 8002d96:	f001 fba3 	bl	80044e0 <ulPortSetInterruptMask>
 8002d9a:	e7fe      	b.n	8002d9a <vTaskSwitchContext+0xc6>
 8002d9c:	f640 234c 	movw	r3, #2636	; 0xa4c
 8002da0:	f2c2 0300 	movt	r3, #8192	; 0x2000
 8002da4:	681b      	ldr	r3, [r3, #0]
 8002da6:	f103 32ff 	add.w	r2, r3, #4294967295
 8002daa:	f640 234c 	movw	r3, #2636	; 0xa4c
 8002dae:	f2c2 0300 	movt	r3, #8192	; 0x2000
 8002db2:	601a      	str	r2, [r3, #0]
 8002db4:	f640 234c 	movw	r3, #2636	; 0xa4c
 8002db8:	f2c2 0300 	movt	r3, #8192	; 0x2000
 8002dbc:	6819      	ldr	r1, [r3, #0]
 8002dbe:	f640 1270 	movw	r2, #2416	; 0x970
 8002dc2:	f2c2 0200 	movt	r2, #8192	; 0x2000
 8002dc6:	460b      	mov	r3, r1
 8002dc8:	ea4f 0383 	mov.w	r3, r3, lsl #2
 8002dcc:	185b      	adds	r3, r3, r1
 8002dce:	ea4f 0383 	mov.w	r3, r3, lsl #2
 8002dd2:	18d3      	adds	r3, r2, r3
 8002dd4:	681b      	ldr	r3, [r3, #0]
 8002dd6:	2b00      	cmp	r3, #0
 8002dd8:	d0d6      	beq.n	8002d88 <vTaskSwitchContext+0xb4>
 8002dda:	f640 234c 	movw	r3, #2636	; 0xa4c
 8002dde:	f2c2 0300 	movt	r3, #8192	; 0x2000
 8002de2:	681a      	ldr	r2, [r3, #0]
 8002de4:	4613      	mov	r3, r2
 8002de6:	ea4f 0383 	mov.w	r3, r3, lsl #2
 8002dea:	189b      	adds	r3, r3, r2
 8002dec:	ea4f 0383 	mov.w	r3, r3, lsl #2
 8002df0:	f640 1270 	movw	r2, #2416	; 0x970
 8002df4:	f2c2 0200 	movt	r2, #8192	; 0x2000
 8002df8:	189b      	adds	r3, r3, r2
 8002dfa:	607b      	str	r3, [r7, #4]
 8002dfc:	687b      	ldr	r3, [r7, #4]
 8002dfe:	685b      	ldr	r3, [r3, #4]
 8002e00:	685a      	ldr	r2, [r3, #4]
 8002e02:	687b      	ldr	r3, [r7, #4]
 8002e04:	605a      	str	r2, [r3, #4]
 8002e06:	687b      	ldr	r3, [r7, #4]
 8002e08:	685a      	ldr	r2, [r3, #4]
 8002e0a:	687b      	ldr	r3, [r7, #4]
 8002e0c:	f103 0308 	add.w	r3, r3, #8
 8002e10:	429a      	cmp	r2, r3
 8002e12:	d104      	bne.n	8002e1e <vTaskSwitchContext+0x14a>
 8002e14:	687b      	ldr	r3, [r7, #4]
 8002e16:	685b      	ldr	r3, [r3, #4]
 8002e18:	685a      	ldr	r2, [r3, #4]
 8002e1a:	687b      	ldr	r3, [r7, #4]
 8002e1c:	605a      	str	r2, [r3, #4]
 8002e1e:	687b      	ldr	r3, [r7, #4]
 8002e20:	685b      	ldr	r3, [r3, #4]
 8002e22:	68da      	ldr	r2, [r3, #12]
 8002e24:	f640 136c 	movw	r3, #2412	; 0x96c
 8002e28:	f2c2 0300 	movt	r3, #8192	; 0x2000
 8002e2c:	601a      	str	r2, [r3, #0]
 8002e2e:	f107 0708 	add.w	r7, r7, #8
 8002e32:	46bd      	mov	sp, r7
 8002e34:	bd80      	pop	{r7, pc}
 8002e36:	bf00      	nop

08002e38 <vTaskPlaceOnEventList>:
 8002e38:	b580      	push	{r7, lr}
 8002e3a:	b084      	sub	sp, #16
 8002e3c:	af00      	add	r7, sp, #0
 8002e3e:	6078      	str	r0, [r7, #4]
 8002e40:	6039      	str	r1, [r7, #0]
 8002e42:	687b      	ldr	r3, [r7, #4]
 8002e44:	2b00      	cmp	r3, #0
 8002e46:	d102      	bne.n	8002e4e <vTaskPlaceOnEventList+0x16>
 8002e48:	f001 fb4a 	bl	80044e0 <ulPortSetInterruptMask>
 8002e4c:	e7fe      	b.n	8002e4c <vTaskPlaceOnEventList+0x14>
 8002e4e:	f640 136c 	movw	r3, #2412	; 0x96c
 8002e52:	f2c2 0300 	movt	r3, #8192	; 0x2000
 8002e56:	681b      	ldr	r3, [r3, #0]
 8002e58:	f103 0318 	add.w	r3, r3, #24
 8002e5c:	6878      	ldr	r0, [r7, #4]
 8002e5e:	4619      	mov	r1, r3
 8002e60:	f001 fc38 	bl	80046d4 <vListInsert>
 8002e64:	f640 136c 	movw	r3, #2412	; 0x96c
 8002e68:	f2c2 0300 	movt	r3, #8192	; 0x2000
 8002e6c:	681b      	ldr	r3, [r3, #0]
 8002e6e:	f103 0304 	add.w	r3, r3, #4
 8002e72:	4618      	mov	r0, r3
 8002e74:	f001 fc68 	bl	8004748 <uxListRemove>
 8002e78:	683b      	ldr	r3, [r7, #0]
 8002e7a:	f1b3 3fff 	cmp.w	r3, #4294967295
 8002e7e:	d10e      	bne.n	8002e9e <vTaskPlaceOnEventList+0x66>
 8002e80:	f640 136c 	movw	r3, #2412	; 0x96c
 8002e84:	f2c2 0300 	movt	r3, #8192	; 0x2000
 8002e88:	681b      	ldr	r3, [r3, #0]
 8002e8a:	f103 0304 	add.w	r3, r3, #4
 8002e8e:	f640 2030 	movw	r0, #2608	; 0xa30
 8002e92:	f2c2 0000 	movt	r0, #8192	; 0x2000
 8002e96:	4619      	mov	r1, r3
 8002e98:	f001 fbf8 	bl	800468c <vListInsertEnd>
 8002e9c:	e00a      	b.n	8002eb4 <vTaskPlaceOnEventList+0x7c>
 8002e9e:	f640 2348 	movw	r3, #2632	; 0xa48
 8002ea2:	f2c2 0300 	movt	r3, #8192	; 0x2000
 8002ea6:	681a      	ldr	r2, [r3, #0]
 8002ea8:	683b      	ldr	r3, [r7, #0]
 8002eaa:	18d3      	adds	r3, r2, r3
 8002eac:	60fb      	str	r3, [r7, #12]
 8002eae:	68f8      	ldr	r0, [r7, #12]
 8002eb0:	f000 fa24 	bl	80032fc <prvAddCurrentTaskToDelayedList>
 8002eb4:	f107 0710 	add.w	r7, r7, #16
 8002eb8:	46bd      	mov	sp, r7
 8002eba:	bd80      	pop	{r7, pc}

08002ebc <vTaskPlaceOnEventListRestricted>:
 8002ebc:	b580      	push	{r7, lr}
 8002ebe:	b084      	sub	sp, #16
 8002ec0:	af00      	add	r7, sp, #0
 8002ec2:	6078      	str	r0, [r7, #4]
 8002ec4:	6039      	str	r1, [r7, #0]
 8002ec6:	687b      	ldr	r3, [r7, #4]
 8002ec8:	2b00      	cmp	r3, #0
 8002eca:	d102      	bne.n	8002ed2 <vTaskPlaceOnEventListRestricted+0x16>
 8002ecc:	f001 fb08 	bl	80044e0 <ulPortSetInterruptMask>
 8002ed0:	e7fe      	b.n	8002ed0 <vTaskPlaceOnEventListRestricted+0x14>
 8002ed2:	f640 136c 	movw	r3, #2412	; 0x96c
 8002ed6:	f2c2 0300 	movt	r3, #8192	; 0x2000
 8002eda:	681b      	ldr	r3, [r3, #0]
 8002edc:	f103 0318 	add.w	r3, r3, #24
 8002ee0:	6878      	ldr	r0, [r7, #4]
 8002ee2:	4619      	mov	r1, r3
 8002ee4:	f001 fbd2 	bl	800468c <vListInsertEnd>
 8002ee8:	f640 136c 	movw	r3, #2412	; 0x96c
 8002eec:	f2c2 0300 	movt	r3, #8192	; 0x2000
 8002ef0:	681b      	ldr	r3, [r3, #0]
 8002ef2:	f103 0304 	add.w	r3, r3, #4
 8002ef6:	4618      	mov	r0, r3
 8002ef8:	f001 fc26 	bl	8004748 <uxListRemove>
 8002efc:	f640 2348 	movw	r3, #2632	; 0xa48
 8002f00:	f2c2 0300 	movt	r3, #8192	; 0x2000
 8002f04:	681a      	ldr	r2, [r3, #0]
 8002f06:	683b      	ldr	r3, [r7, #0]
 8002f08:	18d3      	adds	r3, r2, r3
 8002f0a:	60fb      	str	r3, [r7, #12]
 8002f0c:	68f8      	ldr	r0, [r7, #12]
 8002f0e:	f000 f9f5 	bl	80032fc <prvAddCurrentTaskToDelayedList>
 8002f12:	f107 0710 	add.w	r7, r7, #16
 8002f16:	46bd      	mov	sp, r7
 8002f18:	bd80      	pop	{r7, pc}
 8002f1a:	bf00      	nop

08002f1c <xTaskRemoveFromEventList>:
 8002f1c:	b580      	push	{r7, lr}
 8002f1e:	b084      	sub	sp, #16
 8002f20:	af00      	add	r7, sp, #0
 8002f22:	6078      	str	r0, [r7, #4]
 8002f24:	687b      	ldr	r3, [r7, #4]
 8002f26:	68db      	ldr	r3, [r3, #12]
 8002f28:	68db      	ldr	r3, [r3, #12]
 8002f2a:	60bb      	str	r3, [r7, #8]
 8002f2c:	68bb      	ldr	r3, [r7, #8]
 8002f2e:	2b00      	cmp	r3, #0
 8002f30:	d102      	bne.n	8002f38 <xTaskRemoveFromEventList+0x1c>
 8002f32:	f001 fad5 	bl	80044e0 <ulPortSetInterruptMask>
 8002f36:	e7fe      	b.n	8002f36 <xTaskRemoveFromEventList+0x1a>
 8002f38:	68bb      	ldr	r3, [r7, #8]
 8002f3a:	f103 0318 	add.w	r3, r3, #24
 8002f3e:	4618      	mov	r0, r3
 8002f40:	f001 fc02 	bl	8004748 <uxListRemove>
 8002f44:	f640 2354 	movw	r3, #2644	; 0xa54
 8002f48:	f2c2 0300 	movt	r3, #8192	; 0x2000
 8002f4c:	681b      	ldr	r3, [r3, #0]
 8002f4e:	2b00      	cmp	r3, #0
 8002f50:	d12a      	bne.n	8002fa8 <xTaskRemoveFromEventList+0x8c>
 8002f52:	68bb      	ldr	r3, [r7, #8]
 8002f54:	f103 0304 	add.w	r3, r3, #4
 8002f58:	4618      	mov	r0, r3
 8002f5a:	f001 fbf5 	bl	8004748 <uxListRemove>
 8002f5e:	68bb      	ldr	r3, [r7, #8]
 8002f60:	6ada      	ldr	r2, [r3, #44]	; 0x2c
 8002f62:	f640 234c 	movw	r3, #2636	; 0xa4c
 8002f66:	f2c2 0300 	movt	r3, #8192	; 0x2000
 8002f6a:	681b      	ldr	r3, [r3, #0]
 8002f6c:	429a      	cmp	r2, r3
 8002f6e:	d906      	bls.n	8002f7e <xTaskRemoveFromEventList+0x62>
 8002f70:	68bb      	ldr	r3, [r7, #8]
 8002f72:	6ada      	ldr	r2, [r3, #44]	; 0x2c
 8002f74:	f640 234c 	movw	r3, #2636	; 0xa4c
 8002f78:	f2c2 0300 	movt	r3, #8192	; 0x2000
 8002f7c:	601a      	str	r2, [r3, #0]
 8002f7e:	68bb      	ldr	r3, [r7, #8]
 8002f80:	6ada      	ldr	r2, [r3, #44]	; 0x2c
 8002f82:	4613      	mov	r3, r2
 8002f84:	ea4f 0383 	mov.w	r3, r3, lsl #2
 8002f88:	189b      	adds	r3, r3, r2
 8002f8a:	ea4f 0383 	mov.w	r3, r3, lsl #2
 8002f8e:	f640 1270 	movw	r2, #2416	; 0x970
 8002f92:	f2c2 0200 	movt	r2, #8192	; 0x2000
 8002f96:	189a      	adds	r2, r3, r2
 8002f98:	68bb      	ldr	r3, [r7, #8]
 8002f9a:	f103 0304 	add.w	r3, r3, #4
 8002f9e:	4610      	mov	r0, r2
 8002fa0:	4619      	mov	r1, r3
 8002fa2:	f001 fb73 	bl	800468c <vListInsertEnd>
 8002fa6:	e009      	b.n	8002fbc <xTaskRemoveFromEventList+0xa0>
 8002fa8:	68bb      	ldr	r3, [r7, #8]
 8002faa:	f103 0318 	add.w	r3, r3, #24
 8002fae:	f640 2004 	movw	r0, #2564	; 0xa04
 8002fb2:	f2c2 0000 	movt	r0, #8192	; 0x2000
 8002fb6:	4619      	mov	r1, r3
 8002fb8:	f001 fb68 	bl	800468c <vListInsertEnd>
 8002fbc:	68bb      	ldr	r3, [r7, #8]
 8002fbe:	6ada      	ldr	r2, [r3, #44]	; 0x2c
 8002fc0:	f640 136c 	movw	r3, #2412	; 0x96c
 8002fc4:	f2c2 0300 	movt	r3, #8192	; 0x2000
 8002fc8:	681b      	ldr	r3, [r3, #0]
 8002fca:	6adb      	ldr	r3, [r3, #44]	; 0x2c
 8002fcc:	429a      	cmp	r2, r3
 8002fce:	d30a      	bcc.n	8002fe6 <xTaskRemoveFromEventList+0xca>
 8002fd0:	f04f 0301 	mov.w	r3, #1
 8002fd4:	60fb      	str	r3, [r7, #12]
 8002fd6:	f640 235c 	movw	r3, #2652	; 0xa5c
 8002fda:	f2c2 0300 	movt	r3, #8192	; 0x2000
 8002fde:	f04f 0201 	mov.w	r2, #1
 8002fe2:	601a      	str	r2, [r3, #0]
 8002fe4:	e002      	b.n	8002fec <xTaskRemoveFromEventList+0xd0>
 8002fe6:	f04f 0300 	mov.w	r3, #0
 8002fea:	60fb      	str	r3, [r7, #12]
 8002fec:	68fb      	ldr	r3, [r7, #12]
 8002fee:	4618      	mov	r0, r3
 8002ff0:	f107 0710 	add.w	r7, r7, #16
 8002ff4:	46bd      	mov	sp, r7
 8002ff6:	bd80      	pop	{r7, pc}

08002ff8 <vTaskSetTimeOutState>:
 8002ff8:	b580      	push	{r7, lr}
 8002ffa:	b082      	sub	sp, #8
 8002ffc:	af00      	add	r7, sp, #0
 8002ffe:	6078      	str	r0, [r7, #4]
 8003000:	687b      	ldr	r3, [r7, #4]
 8003002:	2b00      	cmp	r3, #0
 8003004:	d102      	bne.n	800300c <vTaskSetTimeOutState+0x14>
 8003006:	f001 fa6b 	bl	80044e0 <ulPortSetInterruptMask>
 800300a:	e7fe      	b.n	800300a <vTaskSetTimeOutState+0x12>
 800300c:	f640 2360 	movw	r3, #2656	; 0xa60
 8003010:	f2c2 0300 	movt	r3, #8192	; 0x2000
 8003014:	681a      	ldr	r2, [r3, #0]
 8003016:	687b      	ldr	r3, [r7, #4]
 8003018:	601a      	str	r2, [r3, #0]
 800301a:	f640 2348 	movw	r3, #2632	; 0xa48
 800301e:	f2c2 0300 	movt	r3, #8192	; 0x2000
 8003022:	681a      	ldr	r2, [r3, #0]
 8003024:	687b      	ldr	r3, [r7, #4]
 8003026:	605a      	str	r2, [r3, #4]
 8003028:	f107 0708 	add.w	r7, r7, #8
 800302c:	46bd      	mov	sp, r7
 800302e:	bd80      	pop	{r7, pc}

08003030 <xTaskCheckForTimeOut>:
 8003030:	b580      	push	{r7, lr}
 8003032:	b084      	sub	sp, #16
 8003034:	af00      	add	r7, sp, #0
 8003036:	6078      	str	r0, [r7, #4]
 8003038:	6039      	str	r1, [r7, #0]
 800303a:	687b      	ldr	r3, [r7, #4]
 800303c:	2b00      	cmp	r3, #0
 800303e:	d102      	bne.n	8003046 <xTaskCheckForTimeOut+0x16>
 8003040:	f001 fa4e 	bl	80044e0 <ulPortSetInterruptMask>
 8003044:	e7fe      	b.n	8003044 <xTaskCheckForTimeOut+0x14>
 8003046:	683b      	ldr	r3, [r7, #0]
 8003048:	2b00      	cmp	r3, #0
 800304a:	d102      	bne.n	8003052 <xTaskCheckForTimeOut+0x22>
 800304c:	f001 fa48 	bl	80044e0 <ulPortSetInterruptMask>
 8003050:	e7fe      	b.n	8003050 <xTaskCheckForTimeOut+0x20>
 8003052:	f001 fa15 	bl	8004480 <vPortEnterCritical>
 8003056:	f640 2348 	movw	r3, #2632	; 0xa48
 800305a:	f2c2 0300 	movt	r3, #8192	; 0x2000
 800305e:	681b      	ldr	r3, [r3, #0]
 8003060:	60bb      	str	r3, [r7, #8]
 8003062:	683b      	ldr	r3, [r7, #0]
 8003064:	681b      	ldr	r3, [r3, #0]
 8003066:	f1b3 3fff 	cmp.w	r3, #4294967295
 800306a:	d103      	bne.n	8003074 <xTaskCheckForTimeOut+0x44>
 800306c:	f04f 0300 	mov.w	r3, #0
 8003070:	60fb      	str	r3, [r7, #12]
 8003072:	e02c      	b.n	80030ce <xTaskCheckForTimeOut+0x9e>
 8003074:	687b      	ldr	r3, [r7, #4]
 8003076:	681a      	ldr	r2, [r3, #0]
 8003078:	f640 2360 	movw	r3, #2656	; 0xa60
 800307c:	f2c2 0300 	movt	r3, #8192	; 0x2000
 8003080:	681b      	ldr	r3, [r3, #0]
 8003082:	429a      	cmp	r2, r3
 8003084:	d008      	beq.n	8003098 <xTaskCheckForTimeOut+0x68>
 8003086:	687b      	ldr	r3, [r7, #4]
 8003088:	685a      	ldr	r2, [r3, #4]
 800308a:	68bb      	ldr	r3, [r7, #8]
 800308c:	429a      	cmp	r2, r3
 800308e:	d803      	bhi.n	8003098 <xTaskCheckForTimeOut+0x68>
 8003090:	f04f 0301 	mov.w	r3, #1
 8003094:	60fb      	str	r3, [r7, #12]
 8003096:	e01a      	b.n	80030ce <xTaskCheckForTimeOut+0x9e>
 8003098:	687b      	ldr	r3, [r7, #4]
 800309a:	685b      	ldr	r3, [r3, #4]
 800309c:	68ba      	ldr	r2, [r7, #8]
 800309e:	1ad2      	subs	r2, r2, r3
 80030a0:	683b      	ldr	r3, [r7, #0]
 80030a2:	681b      	ldr	r3, [r3, #0]
 80030a4:	429a      	cmp	r2, r3
 80030a6:	d20f      	bcs.n	80030c8 <xTaskCheckForTimeOut+0x98>
 80030a8:	683b      	ldr	r3, [r7, #0]
 80030aa:	681a      	ldr	r2, [r3, #0]
 80030ac:	687b      	ldr	r3, [r7, #4]
 80030ae:	6859      	ldr	r1, [r3, #4]
 80030b0:	68bb      	ldr	r3, [r7, #8]
 80030b2:	1acb      	subs	r3, r1, r3
 80030b4:	18d2      	adds	r2, r2, r3
 80030b6:	683b      	ldr	r3, [r7, #0]
 80030b8:	601a      	str	r2, [r3, #0]
 80030ba:	6878      	ldr	r0, [r7, #4]
 80030bc:	f7ff ff9c 	bl	8002ff8 <vTaskSetTimeOutState>
 80030c0:	f04f 0300 	mov.w	r3, #0
 80030c4:	60fb      	str	r3, [r7, #12]
 80030c6:	e002      	b.n	80030ce <xTaskCheckForTimeOut+0x9e>
 80030c8:	f04f 0301 	mov.w	r3, #1
 80030cc:	60fb      	str	r3, [r7, #12]
 80030ce:	f001 f9ed 	bl	80044ac <vPortExitCritical>
 80030d2:	68fb      	ldr	r3, [r7, #12]
 80030d4:	4618      	mov	r0, r3
 80030d6:	f107 0710 	add.w	r7, r7, #16
 80030da:	46bd      	mov	sp, r7
 80030dc:	bd80      	pop	{r7, pc}
 80030de:	bf00      	nop

080030e0 <vTaskMissedYield>:
 80030e0:	b480      	push	{r7}
 80030e2:	af00      	add	r7, sp, #0
 80030e4:	f640 235c 	movw	r3, #2652	; 0xa5c
 80030e8:	f2c2 0300 	movt	r3, #8192	; 0x2000
 80030ec:	f04f 0201 	mov.w	r2, #1
 80030f0:	601a      	str	r2, [r3, #0]
 80030f2:	46bd      	mov	sp, r7
 80030f4:	bc80      	pop	{r7}
 80030f6:	4770      	bx	lr

080030f8 <prvIdleTask>:
 80030f8:	b580      	push	{r7, lr}
 80030fa:	b082      	sub	sp, #8
 80030fc:	af00      	add	r7, sp, #0
 80030fe:	6078      	str	r0, [r7, #4]
 8003100:	e000      	b.n	8003104 <prvIdleTask+0xc>
 8003102:	bf00      	nop
 8003104:	f000 f8ac 	bl	8003260 <prvCheckTasksWaitingTermination>
 8003108:	f640 1370 	movw	r3, #2416	; 0x970
 800310c:	f2c2 0300 	movt	r3, #8192	; 0x2000
 8003110:	681b      	ldr	r3, [r3, #0]
 8003112:	2b01      	cmp	r3, #1
 8003114:	d9f5      	bls.n	8003102 <prvIdleTask+0xa>
 8003116:	f001 f9a3 	bl	8004460 <vPortYield>
 800311a:	e7f2      	b.n	8003102 <prvIdleTask+0xa>

0800311c <prvInitialiseTCBVariables>:
 800311c:	b580      	push	{r7, lr}
 800311e:	b086      	sub	sp, #24
 8003120:	af00      	add	r7, sp, #0
 8003122:	60f8      	str	r0, [r7, #12]
 8003124:	60b9      	str	r1, [r7, #8]
 8003126:	607a      	str	r2, [r7, #4]
 8003128:	603b      	str	r3, [r7, #0]
 800312a:	f04f 0300 	mov.w	r3, #0
 800312e:	617b      	str	r3, [r7, #20]
 8003130:	e013      	b.n	800315a <prvInitialiseTCBVariables+0x3e>
 8003132:	68ba      	ldr	r2, [r7, #8]
 8003134:	697b      	ldr	r3, [r7, #20]
 8003136:	18d3      	adds	r3, r2, r3
 8003138:	781a      	ldrb	r2, [r3, #0]
 800313a:	68f9      	ldr	r1, [r7, #12]
 800313c:	697b      	ldr	r3, [r7, #20]
 800313e:	18cb      	adds	r3, r1, r3
 8003140:	f103 0330 	add.w	r3, r3, #48	; 0x30
 8003144:	711a      	strb	r2, [r3, #4]
 8003146:	68ba      	ldr	r2, [r7, #8]
 8003148:	697b      	ldr	r3, [r7, #20]
 800314a:	18d3      	adds	r3, r2, r3
 800314c:	781b      	ldrb	r3, [r3, #0]
 800314e:	2b00      	cmp	r3, #0
 8003150:	d007      	beq.n	8003162 <prvInitialiseTCBVariables+0x46>
 8003152:	697b      	ldr	r3, [r7, #20]
 8003154:	f103 0301 	add.w	r3, r3, #1
 8003158:	617b      	str	r3, [r7, #20]
 800315a:	697b      	ldr	r3, [r7, #20]
 800315c:	2b0f      	cmp	r3, #15
 800315e:	d9e8      	bls.n	8003132 <prvInitialiseTCBVariables+0x16>
 8003160:	e000      	b.n	8003164 <prvInitialiseTCBVariables+0x48>
 8003162:	bf00      	nop
 8003164:	68fb      	ldr	r3, [r7, #12]
 8003166:	f04f 0200 	mov.w	r2, #0
 800316a:	f883 2043 	strb.w	r2, [r3, #67]	; 0x43
 800316e:	687b      	ldr	r3, [r7, #4]
 8003170:	2b04      	cmp	r3, #4
 8003172:	d902      	bls.n	800317a <prvInitialiseTCBVariables+0x5e>
 8003174:	f04f 0304 	mov.w	r3, #4
 8003178:	607b      	str	r3, [r7, #4]
 800317a:	68fb      	ldr	r3, [r7, #12]
 800317c:	687a      	ldr	r2, [r7, #4]
 800317e:	62da      	str	r2, [r3, #44]	; 0x2c
 8003180:	68fb      	ldr	r3, [r7, #12]
 8003182:	687a      	ldr	r2, [r7, #4]
 8003184:	64da      	str	r2, [r3, #76]	; 0x4c
 8003186:	68fb      	ldr	r3, [r7, #12]
 8003188:	f103 0304 	add.w	r3, r3, #4
 800318c:	4618      	mov	r0, r3
 800318e:	f001 fa6f 	bl	8004670 <vListInitialiseItem>
 8003192:	68fb      	ldr	r3, [r7, #12]
 8003194:	f103 0318 	add.w	r3, r3, #24
 8003198:	4618      	mov	r0, r3
 800319a:	f001 fa69 	bl	8004670 <vListInitialiseItem>
 800319e:	68fb      	ldr	r3, [r7, #12]
 80031a0:	68fa      	ldr	r2, [r7, #12]
 80031a2:	611a      	str	r2, [r3, #16]
 80031a4:	687b      	ldr	r3, [r7, #4]
 80031a6:	f1c3 0205 	rsb	r2, r3, #5
 80031aa:	68fb      	ldr	r3, [r7, #12]
 80031ac:	619a      	str	r2, [r3, #24]
 80031ae:	68fb      	ldr	r3, [r7, #12]
 80031b0:	68fa      	ldr	r2, [r7, #12]
 80031b2:	625a      	str	r2, [r3, #36]	; 0x24
 80031b4:	f107 0718 	add.w	r7, r7, #24
 80031b8:	46bd      	mov	sp, r7
 80031ba:	bd80      	pop	{r7, pc}

080031bc <prvInitialiseTaskLists>:
 80031bc:	b580      	push	{r7, lr}
 80031be:	b082      	sub	sp, #8
 80031c0:	af00      	add	r7, sp, #0
 80031c2:	f04f 0300 	mov.w	r3, #0
 80031c6:	607b      	str	r3, [r7, #4]
 80031c8:	e012      	b.n	80031f0 <prvInitialiseTaskLists+0x34>
 80031ca:	687a      	ldr	r2, [r7, #4]
 80031cc:	4613      	mov	r3, r2
 80031ce:	ea4f 0383 	mov.w	r3, r3, lsl #2
 80031d2:	189b      	adds	r3, r3, r2
 80031d4:	ea4f 0383 	mov.w	r3, r3, lsl #2
 80031d8:	f640 1270 	movw	r2, #2416	; 0x970
 80031dc:	f2c2 0200 	movt	r2, #8192	; 0x2000
 80031e0:	189b      	adds	r3, r3, r2
 80031e2:	4618      	mov	r0, r3
 80031e4:	f001 fa24 	bl	8004630 <vListInitialise>
 80031e8:	687b      	ldr	r3, [r7, #4]
 80031ea:	f103 0301 	add.w	r3, r3, #1
 80031ee:	607b      	str	r3, [r7, #4]
 80031f0:	687b      	ldr	r3, [r7, #4]
 80031f2:	2b04      	cmp	r3, #4
 80031f4:	d9e9      	bls.n	80031ca <prvInitialiseTaskLists+0xe>
 80031f6:	f640 10d4 	movw	r0, #2516	; 0x9d4
 80031fa:	f2c2 0000 	movt	r0, #8192	; 0x2000
 80031fe:	f001 fa17 	bl	8004630 <vListInitialise>
 8003202:	f640 10e8 	movw	r0, #2536	; 0x9e8
 8003206:	f2c2 0000 	movt	r0, #8192	; 0x2000
 800320a:	f001 fa11 	bl	8004630 <vListInitialise>
 800320e:	f640 2004 	movw	r0, #2564	; 0xa04
 8003212:	f2c2 0000 	movt	r0, #8192	; 0x2000
 8003216:	f001 fa0b 	bl	8004630 <vListInitialise>
 800321a:	f640 2018 	movw	r0, #2584	; 0xa18
 800321e:	f2c2 0000 	movt	r0, #8192	; 0x2000
 8003222:	f001 fa05 	bl	8004630 <vListInitialise>
 8003226:	f640 2030 	movw	r0, #2608	; 0xa30
 800322a:	f2c2 0000 	movt	r0, #8192	; 0x2000
 800322e:	f001 f9ff 	bl	8004630 <vListInitialise>
 8003232:	f640 13fc 	movw	r3, #2556	; 0x9fc
 8003236:	f2c2 0300 	movt	r3, #8192	; 0x2000
 800323a:	f640 12d4 	movw	r2, #2516	; 0x9d4
 800323e:	f2c2 0200 	movt	r2, #8192	; 0x2000
 8003242:	601a      	str	r2, [r3, #0]
 8003244:	f640 2300 	movw	r3, #2560	; 0xa00
 8003248:	f2c2 0300 	movt	r3, #8192	; 0x2000
 800324c:	f640 12e8 	movw	r2, #2536	; 0x9e8
 8003250:	f2c2 0200 	movt	r2, #8192	; 0x2000
 8003254:	601a      	str	r2, [r3, #0]
 8003256:	f107 0708 	add.w	r7, r7, #8
 800325a:	46bd      	mov	sp, r7
 800325c:	bd80      	pop	{r7, pc}
 800325e:	bf00      	nop

08003260 <prvCheckTasksWaitingTermination>:
 8003260:	b580      	push	{r7, lr}
 8003262:	b082      	sub	sp, #8
 8003264:	af00      	add	r7, sp, #0
 8003266:	e03d      	b.n	80032e4 <prvCheckTasksWaitingTermination+0x84>
 8003268:	f7ff fb30 	bl	80028cc <vTaskSuspendAll>
 800326c:	f640 2318 	movw	r3, #2584	; 0xa18
 8003270:	f2c2 0300 	movt	r3, #8192	; 0x2000
 8003274:	681b      	ldr	r3, [r3, #0]
 8003276:	2b00      	cmp	r3, #0
 8003278:	bf14      	ite	ne
 800327a:	2300      	movne	r3, #0
 800327c:	2301      	moveq	r3, #1
 800327e:	b2db      	uxtb	r3, r3
 8003280:	607b      	str	r3, [r7, #4]
 8003282:	f7ff fb35 	bl	80028f0 <xTaskResumeAll>
 8003286:	687b      	ldr	r3, [r7, #4]
 8003288:	2b00      	cmp	r3, #0
 800328a:	d12b      	bne.n	80032e4 <prvCheckTasksWaitingTermination+0x84>
 800328c:	f001 f8f8 	bl	8004480 <vPortEnterCritical>
 8003290:	f640 2318 	movw	r3, #2584	; 0xa18
 8003294:	f2c2 0300 	movt	r3, #8192	; 0x2000
 8003298:	68db      	ldr	r3, [r3, #12]
 800329a:	68db      	ldr	r3, [r3, #12]
 800329c:	603b      	str	r3, [r7, #0]
 800329e:	683b      	ldr	r3, [r7, #0]
 80032a0:	f103 0304 	add.w	r3, r3, #4
 80032a4:	4618      	mov	r0, r3
 80032a6:	f001 fa4f 	bl	8004748 <uxListRemove>
 80032aa:	f640 2344 	movw	r3, #2628	; 0xa44
 80032ae:	f2c2 0300 	movt	r3, #8192	; 0x2000
 80032b2:	681b      	ldr	r3, [r3, #0]
 80032b4:	f103 32ff 	add.w	r2, r3, #4294967295
 80032b8:	f640 2344 	movw	r3, #2628	; 0xa44
 80032bc:	f2c2 0300 	movt	r3, #8192	; 0x2000
 80032c0:	601a      	str	r2, [r3, #0]
 80032c2:	f640 232c 	movw	r3, #2604	; 0xa2c
 80032c6:	f2c2 0300 	movt	r3, #8192	; 0x2000
 80032ca:	681b      	ldr	r3, [r3, #0]
 80032cc:	f103 32ff 	add.w	r2, r3, #4294967295
 80032d0:	f640 232c 	movw	r3, #2604	; 0xa2c
 80032d4:	f2c2 0300 	movt	r3, #8192	; 0x2000
 80032d8:	601a      	str	r2, [r3, #0]
 80032da:	f001 f8e7 	bl	80044ac <vPortExitCritical>
 80032de:	6838      	ldr	r0, [r7, #0]
 80032e0:	f000 f88a 	bl	80033f8 <prvDeleteTCB>
 80032e4:	f640 232c 	movw	r3, #2604	; 0xa2c
 80032e8:	f2c2 0300 	movt	r3, #8192	; 0x2000
 80032ec:	681b      	ldr	r3, [r3, #0]
 80032ee:	2b00      	cmp	r3, #0
 80032f0:	d1ba      	bne.n	8003268 <prvCheckTasksWaitingTermination+0x8>
 80032f2:	f107 0708 	add.w	r7, r7, #8
 80032f6:	46bd      	mov	sp, r7
 80032f8:	bd80      	pop	{r7, pc}
 80032fa:	bf00      	nop

080032fc <prvAddCurrentTaskToDelayedList>:
 80032fc:	b580      	push	{r7, lr}
 80032fe:	b082      	sub	sp, #8
 8003300:	af00      	add	r7, sp, #0
 8003302:	6078      	str	r0, [r7, #4]
 8003304:	f640 136c 	movw	r3, #2412	; 0x96c
 8003308:	f2c2 0300 	movt	r3, #8192	; 0x2000
 800330c:	681b      	ldr	r3, [r3, #0]
 800330e:	687a      	ldr	r2, [r7, #4]
 8003310:	605a      	str	r2, [r3, #4]
 8003312:	f640 2348 	movw	r3, #2632	; 0xa48
 8003316:	f2c2 0300 	movt	r3, #8192	; 0x2000
 800331a:	681b      	ldr	r3, [r3, #0]
 800331c:	687a      	ldr	r2, [r7, #4]
 800331e:	429a      	cmp	r2, r3
 8003320:	d210      	bcs.n	8003344 <prvAddCurrentTaskToDelayedList+0x48>
 8003322:	f640 2300 	movw	r3, #2560	; 0xa00
 8003326:	f2c2 0300 	movt	r3, #8192	; 0x2000
 800332a:	681a      	ldr	r2, [r3, #0]
 800332c:	f640 136c 	movw	r3, #2412	; 0x96c
 8003330:	f2c2 0300 	movt	r3, #8192	; 0x2000
 8003334:	681b      	ldr	r3, [r3, #0]
 8003336:	f103 0304 	add.w	r3, r3, #4
 800333a:	4610      	mov	r0, r2
 800333c:	4619      	mov	r1, r3
 800333e:	f001 f9c9 	bl	80046d4 <vListInsert>
 8003342:	e01d      	b.n	8003380 <prvAddCurrentTaskToDelayedList+0x84>
 8003344:	f640 13fc 	movw	r3, #2556	; 0x9fc
 8003348:	f2c2 0300 	movt	r3, #8192	; 0x2000
 800334c:	681a      	ldr	r2, [r3, #0]
 800334e:	f640 136c 	movw	r3, #2412	; 0x96c
 8003352:	f2c2 0300 	movt	r3, #8192	; 0x2000
 8003356:	681b      	ldr	r3, [r3, #0]
 8003358:	f103 0304 	add.w	r3, r3, #4
 800335c:	4610      	mov	r0, r2
 800335e:	4619      	mov	r1, r3
 8003360:	f001 f9b8 	bl	80046d4 <vListInsert>
 8003364:	f640 1308 	movw	r3, #2312	; 0x908
 8003368:	f2c2 0300 	movt	r3, #8192	; 0x2000
 800336c:	681b      	ldr	r3, [r3, #0]
 800336e:	687a      	ldr	r2, [r7, #4]
 8003370:	429a      	cmp	r2, r3
 8003372:	d205      	bcs.n	8003380 <prvAddCurrentTaskToDelayedList+0x84>
 8003374:	f640 1308 	movw	r3, #2312	; 0x908
 8003378:	f2c2 0300 	movt	r3, #8192	; 0x2000
 800337c:	687a      	ldr	r2, [r7, #4]
 800337e:	601a      	str	r2, [r3, #0]
 8003380:	f107 0708 	add.w	r7, r7, #8
 8003384:	46bd      	mov	sp, r7
 8003386:	bd80      	pop	{r7, pc}

08003388 <prvAllocateTCBAndStack>:
 8003388:	b580      	push	{r7, lr}
 800338a:	b084      	sub	sp, #16
 800338c:	af00      	add	r7, sp, #0
 800338e:	4603      	mov	r3, r0
 8003390:	6039      	str	r1, [r7, #0]
 8003392:	80fb      	strh	r3, [r7, #6]
 8003394:	f04f 0050 	mov.w	r0, #80	; 0x50
 8003398:	f000 fd84 	bl	8003ea4 <pvPortMalloc>
 800339c:	60f8      	str	r0, [r7, #12]
 800339e:	68fb      	ldr	r3, [r7, #12]
 80033a0:	2b00      	cmp	r3, #0
 80033a2:	d023      	beq.n	80033ec <prvAllocateTCBAndStack+0x64>
 80033a4:	683b      	ldr	r3, [r7, #0]
 80033a6:	2b00      	cmp	r3, #0
 80033a8:	d107      	bne.n	80033ba <prvAllocateTCBAndStack+0x32>
 80033aa:	88fb      	ldrh	r3, [r7, #6]
 80033ac:	ea4f 0383 	mov.w	r3, r3, lsl #2
 80033b0:	4618      	mov	r0, r3
 80033b2:	f000 fd77 	bl	8003ea4 <pvPortMalloc>
 80033b6:	4603      	mov	r3, r0
 80033b8:	e000      	b.n	80033bc <prvAllocateTCBAndStack+0x34>
 80033ba:	683b      	ldr	r3, [r7, #0]
 80033bc:	68fa      	ldr	r2, [r7, #12]
 80033be:	6313      	str	r3, [r2, #48]	; 0x30
 80033c0:	68fb      	ldr	r3, [r7, #12]
 80033c2:	6b1b      	ldr	r3, [r3, #48]	; 0x30
 80033c4:	2b00      	cmp	r3, #0
 80033c6:	d106      	bne.n	80033d6 <prvAllocateTCBAndStack+0x4e>
 80033c8:	68f8      	ldr	r0, [r7, #12]
 80033ca:	f000 fe1d 	bl	8004008 <vPortFree>
 80033ce:	f04f 0300 	mov.w	r3, #0
 80033d2:	60fb      	str	r3, [r7, #12]
 80033d4:	e00a      	b.n	80033ec <prvAllocateTCBAndStack+0x64>
 80033d6:	68fb      	ldr	r3, [r7, #12]
 80033d8:	6b1a      	ldr	r2, [r3, #48]	; 0x30
 80033da:	88fb      	ldrh	r3, [r7, #6]
 80033dc:	ea4f 0383 	mov.w	r3, r3, lsl #2
 80033e0:	4610      	mov	r0, r2
 80033e2:	f04f 01a5 	mov.w	r1, #165	; 0xa5
 80033e6:	461a      	mov	r2, r3
 80033e8:	f001 fcda 	bl	8004da0 <memset>
 80033ec:	68fb      	ldr	r3, [r7, #12]
 80033ee:	4618      	mov	r0, r3
 80033f0:	f107 0710 	add.w	r7, r7, #16
 80033f4:	46bd      	mov	sp, r7
 80033f6:	bd80      	pop	{r7, pc}

080033f8 <prvDeleteTCB>:
 80033f8:	b580      	push	{r7, lr}
 80033fa:	b082      	sub	sp, #8
 80033fc:	af00      	add	r7, sp, #0
 80033fe:	6078      	str	r0, [r7, #4]
 8003400:	687b      	ldr	r3, [r7, #4]
 8003402:	6b1b      	ldr	r3, [r3, #48]	; 0x30
 8003404:	4618      	mov	r0, r3
 8003406:	f000 fdff 	bl	8004008 <vPortFree>
 800340a:	6878      	ldr	r0, [r7, #4]
 800340c:	f000 fdfc 	bl	8004008 <vPortFree>
 8003410:	f107 0708 	add.w	r7, r7, #8
 8003414:	46bd      	mov	sp, r7
 8003416:	bd80      	pop	{r7, pc}

08003418 <xTaskGetCurrentTaskHandle>:
 8003418:	b480      	push	{r7}
 800341a:	b083      	sub	sp, #12
 800341c:	af00      	add	r7, sp, #0
 800341e:	f640 136c 	movw	r3, #2412	; 0x96c
 8003422:	f2c2 0300 	movt	r3, #8192	; 0x2000
 8003426:	681b      	ldr	r3, [r3, #0]
 8003428:	607b      	str	r3, [r7, #4]
 800342a:	687b      	ldr	r3, [r7, #4]
 800342c:	4618      	mov	r0, r3
 800342e:	f107 070c 	add.w	r7, r7, #12
 8003432:	46bd      	mov	sp, r7
 8003434:	bc80      	pop	{r7}
 8003436:	4770      	bx	lr

08003438 <xTaskGetSchedulerState>:
 8003438:	b480      	push	{r7}
 800343a:	b083      	sub	sp, #12
 800343c:	af00      	add	r7, sp, #0
 800343e:	f640 2350 	movw	r3, #2640	; 0xa50
 8003442:	f2c2 0300 	movt	r3, #8192	; 0x2000
 8003446:	681b      	ldr	r3, [r3, #0]
 8003448:	2b00      	cmp	r3, #0
 800344a:	d103      	bne.n	8003454 <xTaskGetSchedulerState+0x1c>
 800344c:	f04f 0300 	mov.w	r3, #0
 8003450:	607b      	str	r3, [r7, #4]
 8003452:	e00d      	b.n	8003470 <xTaskGetSchedulerState+0x38>
 8003454:	f640 2354 	movw	r3, #2644	; 0xa54
 8003458:	f2c2 0300 	movt	r3, #8192	; 0x2000
 800345c:	681b      	ldr	r3, [r3, #0]
 800345e:	2b00      	cmp	r3, #0
 8003460:	d103      	bne.n	800346a <xTaskGetSchedulerState+0x32>
 8003462:	f04f 0301 	mov.w	r3, #1
 8003466:	607b      	str	r3, [r7, #4]
 8003468:	e002      	b.n	8003470 <xTaskGetSchedulerState+0x38>
 800346a:	f04f 0302 	mov.w	r3, #2
 800346e:	607b      	str	r3, [r7, #4]
 8003470:	687b      	ldr	r3, [r7, #4]
 8003472:	4618      	mov	r0, r3
 8003474:	f107 070c 	add.w	r7, r7, #12
 8003478:	46bd      	mov	sp, r7
 800347a:	bc80      	pop	{r7}
 800347c:	4770      	bx	lr
 800347e:	bf00      	nop

08003480 <vTaskPriorityInherit>:
 8003480:	b580      	push	{r7, lr}
 8003482:	b084      	sub	sp, #16
 8003484:	af00      	add	r7, sp, #0
 8003486:	6078      	str	r0, [r7, #4]
 8003488:	687b      	ldr	r3, [r7, #4]
 800348a:	60fb      	str	r3, [r7, #12]
 800348c:	687b      	ldr	r3, [r7, #4]
 800348e:	2b00      	cmp	r3, #0
 8003490:	d066      	beq.n	8003560 <vTaskPriorityInherit+0xe0>
 8003492:	68fb      	ldr	r3, [r7, #12]
 8003494:	6ada      	ldr	r2, [r3, #44]	; 0x2c
 8003496:	f640 136c 	movw	r3, #2412	; 0x96c
 800349a:	f2c2 0300 	movt	r3, #8192	; 0x2000
 800349e:	681b      	ldr	r3, [r3, #0]
 80034a0:	6adb      	ldr	r3, [r3, #44]	; 0x2c
 80034a2:	429a      	cmp	r2, r3
 80034a4:	d25c      	bcs.n	8003560 <vTaskPriorityInherit+0xe0>
 80034a6:	f640 136c 	movw	r3, #2412	; 0x96c
 80034aa:	f2c2 0300 	movt	r3, #8192	; 0x2000
 80034ae:	681b      	ldr	r3, [r3, #0]
 80034b0:	6adb      	ldr	r3, [r3, #44]	; 0x2c
 80034b2:	f1c3 0205 	rsb	r2, r3, #5
 80034b6:	68fb      	ldr	r3, [r7, #12]
 80034b8:	619a      	str	r2, [r3, #24]
 80034ba:	68fb      	ldr	r3, [r7, #12]
 80034bc:	6959      	ldr	r1, [r3, #20]
 80034be:	68fb      	ldr	r3, [r7, #12]
 80034c0:	6ada      	ldr	r2, [r3, #44]	; 0x2c
 80034c2:	4613      	mov	r3, r2
 80034c4:	ea4f 0383 	mov.w	r3, r3, lsl #2
 80034c8:	189b      	adds	r3, r3, r2
 80034ca:	ea4f 0383 	mov.w	r3, r3, lsl #2
 80034ce:	f640 1270 	movw	r2, #2416	; 0x970
 80034d2:	f2c2 0200 	movt	r2, #8192	; 0x2000
 80034d6:	189b      	adds	r3, r3, r2
 80034d8:	4299      	cmp	r1, r3
 80034da:	d102      	bne.n	80034e2 <vTaskPriorityInherit+0x62>
 80034dc:	f04f 0301 	mov.w	r3, #1
 80034e0:	e001      	b.n	80034e6 <vTaskPriorityInherit+0x66>
 80034e2:	f04f 0300 	mov.w	r3, #0
 80034e6:	2b00      	cmp	r3, #0
 80034e8:	d032      	beq.n	8003550 <vTaskPriorityInherit+0xd0>
 80034ea:	68fb      	ldr	r3, [r7, #12]
 80034ec:	f103 0304 	add.w	r3, r3, #4
 80034f0:	4618      	mov	r0, r3
 80034f2:	f001 f929 	bl	8004748 <uxListRemove>
 80034f6:	f640 136c 	movw	r3, #2412	; 0x96c
 80034fa:	f2c2 0300 	movt	r3, #8192	; 0x2000
 80034fe:	681b      	ldr	r3, [r3, #0]
 8003500:	6ada      	ldr	r2, [r3, #44]	; 0x2c
 8003502:	68fb      	ldr	r3, [r7, #12]
 8003504:	62da      	str	r2, [r3, #44]	; 0x2c
 8003506:	68fb      	ldr	r3, [r7, #12]
 8003508:	6ada      	ldr	r2, [r3, #44]	; 0x2c
 800350a:	f640 234c 	movw	r3, #2636	; 0xa4c
 800350e:	f2c2 0300 	movt	r3, #8192	; 0x2000
 8003512:	681b      	ldr	r3, [r3, #0]
 8003514:	429a      	cmp	r2, r3
 8003516:	d906      	bls.n	8003526 <vTaskPriorityInherit+0xa6>
 8003518:	68fb      	ldr	r3, [r7, #12]
 800351a:	6ada      	ldr	r2, [r3, #44]	; 0x2c
 800351c:	f640 234c 	movw	r3, #2636	; 0xa4c
 8003520:	f2c2 0300 	movt	r3, #8192	; 0x2000
 8003524:	601a      	str	r2, [r3, #0]
 8003526:	68fb      	ldr	r3, [r7, #12]
 8003528:	6ada      	ldr	r2, [r3, #44]	; 0x2c
 800352a:	4613      	mov	r3, r2
 800352c:	ea4f 0383 	mov.w	r3, r3, lsl #2
 8003530:	189b      	adds	r3, r3, r2
 8003532:	ea4f 0383 	mov.w	r3, r3, lsl #2
 8003536:	f640 1270 	movw	r2, #2416	; 0x970
 800353a:	f2c2 0200 	movt	r2, #8192	; 0x2000
 800353e:	189a      	adds	r2, r3, r2
 8003540:	68fb      	ldr	r3, [r7, #12]
 8003542:	f103 0304 	add.w	r3, r3, #4
 8003546:	4610      	mov	r0, r2
 8003548:	4619      	mov	r1, r3
 800354a:	f001 f89f 	bl	800468c <vListInsertEnd>
 800354e:	e007      	b.n	8003560 <vTaskPriorityInherit+0xe0>
 8003550:	f640 136c 	movw	r3, #2412	; 0x96c
 8003554:	f2c2 0300 	movt	r3, #8192	; 0x2000
 8003558:	681b      	ldr	r3, [r3, #0]
 800355a:	6ada      	ldr	r2, [r3, #44]	; 0x2c
 800355c:	68fb      	ldr	r3, [r7, #12]
 800355e:	62da      	str	r2, [r3, #44]	; 0x2c
 8003560:	f107 0710 	add.w	r7, r7, #16
 8003564:	46bd      	mov	sp, r7
 8003566:	bd80      	pop	{r7, pc}

08003568 <vTaskPriorityDisinherit>:
 8003568:	b580      	push	{r7, lr}
 800356a:	b084      	sub	sp, #16
 800356c:	af00      	add	r7, sp, #0
 800356e:	6078      	str	r0, [r7, #4]
 8003570:	687b      	ldr	r3, [r7, #4]
 8003572:	60fb      	str	r3, [r7, #12]
 8003574:	687b      	ldr	r3, [r7, #4]
 8003576:	2b00      	cmp	r3, #0
 8003578:	d039      	beq.n	80035ee <vTaskPriorityDisinherit+0x86>
 800357a:	68fb      	ldr	r3, [r7, #12]
 800357c:	6ada      	ldr	r2, [r3, #44]	; 0x2c
 800357e:	68fb      	ldr	r3, [r7, #12]
 8003580:	6cdb      	ldr	r3, [r3, #76]	; 0x4c
 8003582:	429a      	cmp	r2, r3
 8003584:	d033      	beq.n	80035ee <vTaskPriorityDisinherit+0x86>
 8003586:	68fb      	ldr	r3, [r7, #12]
 8003588:	f103 0304 	add.w	r3, r3, #4
 800358c:	4618      	mov	r0, r3
 800358e:	f001 f8db 	bl	8004748 <uxListRemove>
 8003592:	68fb      	ldr	r3, [r7, #12]
 8003594:	6cda      	ldr	r2, [r3, #76]	; 0x4c
 8003596:	68fb      	ldr	r3, [r7, #12]
 8003598:	62da      	str	r2, [r3, #44]	; 0x2c
 800359a:	68fb      	ldr	r3, [r7, #12]
 800359c:	6adb      	ldr	r3, [r3, #44]	; 0x2c
 800359e:	f1c3 0205 	rsb	r2, r3, #5
 80035a2:	68fb      	ldr	r3, [r7, #12]
 80035a4:	619a      	str	r2, [r3, #24]
 80035a6:	68fb      	ldr	r3, [r7, #12]
 80035a8:	6ada      	ldr	r2, [r3, #44]	; 0x2c
 80035aa:	f640 234c 	movw	r3, #2636	; 0xa4c
 80035ae:	f2c2 0300 	movt	r3, #8192	; 0x2000
 80035b2:	681b      	ldr	r3, [r3, #0]
 80035b4:	429a      	cmp	r2, r3
 80035b6:	d906      	bls.n	80035c6 <vTaskPriorityDisinherit+0x5e>
 80035b8:	68fb      	ldr	r3, [r7, #12]
 80035ba:	6ada      	ldr	r2, [r3, #44]	; 0x2c
 80035bc:	f640 234c 	movw	r3, #2636	; 0xa4c
 80035c0:	f2c2 0300 	movt	r3, #8192	; 0x2000
 80035c4:	601a      	str	r2, [r3, #0]
 80035c6:	68fb      	ldr	r3, [r7, #12]
 80035c8:	6ada      	ldr	r2, [r3, #44]	; 0x2c
 80035ca:	4613      	mov	r3, r2
 80035cc:	ea4f 0383 	mov.w	r3, r3, lsl #2
 80035d0:	189b      	adds	r3, r3, r2
 80035d2:	ea4f 0383 	mov.w	r3, r3, lsl #2
 80035d6:	f640 1270 	movw	r2, #2416	; 0x970
 80035da:	f2c2 0200 	movt	r2, #8192	; 0x2000
 80035de:	189a      	adds	r2, r3, r2
 80035e0:	68fb      	ldr	r3, [r7, #12]
 80035e2:	f103 0304 	add.w	r3, r3, #4
 80035e6:	4610      	mov	r0, r2
 80035e8:	4619      	mov	r1, r3
 80035ea:	f001 f84f 	bl	800468c <vListInsertEnd>
 80035ee:	f107 0710 	add.w	r7, r7, #16
 80035f2:	46bd      	mov	sp, r7
 80035f4:	bd80      	pop	{r7, pc}
 80035f6:	bf00      	nop

080035f8 <xQueueGenericReset>:
 80035f8:	b580      	push	{r7, lr}
 80035fa:	b084      	sub	sp, #16
 80035fc:	af00      	add	r7, sp, #0
 80035fe:	6078      	str	r0, [r7, #4]
 8003600:	6039      	str	r1, [r7, #0]
 8003602:	687b      	ldr	r3, [r7, #4]
 8003604:	60fb      	str	r3, [r7, #12]
 8003606:	68fb      	ldr	r3, [r7, #12]
 8003608:	2b00      	cmp	r3, #0
 800360a:	d102      	bne.n	8003612 <xQueueGenericReset+0x1a>
 800360c:	f000 ff68 	bl	80044e0 <ulPortSetInterruptMask>
 8003610:	e7fe      	b.n	8003610 <xQueueGenericReset+0x18>
 8003612:	f000 ff35 	bl	8004480 <vPortEnterCritical>
 8003616:	68fb      	ldr	r3, [r7, #12]
 8003618:	681a      	ldr	r2, [r3, #0]
 800361a:	68fb      	ldr	r3, [r7, #12]
 800361c:	6bdb      	ldr	r3, [r3, #60]	; 0x3c
 800361e:	68f9      	ldr	r1, [r7, #12]
 8003620:	6c09      	ldr	r1, [r1, #64]	; 0x40
 8003622:	fb01 f303 	mul.w	r3, r1, r3
 8003626:	18d2      	adds	r2, r2, r3
 8003628:	68fb      	ldr	r3, [r7, #12]
 800362a:	605a      	str	r2, [r3, #4]
 800362c:	68fb      	ldr	r3, [r7, #12]
 800362e:	f04f 0200 	mov.w	r2, #0
 8003632:	639a      	str	r2, [r3, #56]	; 0x38
 8003634:	68fb      	ldr	r3, [r7, #12]
 8003636:	681a      	ldr	r2, [r3, #0]
 8003638:	68fb      	ldr	r3, [r7, #12]
 800363a:	609a      	str	r2, [r3, #8]
 800363c:	68fb      	ldr	r3, [r7, #12]
 800363e:	681a      	ldr	r2, [r3, #0]
 8003640:	68fb      	ldr	r3, [r7, #12]
 8003642:	6bdb      	ldr	r3, [r3, #60]	; 0x3c
 8003644:	f103 33ff 	add.w	r3, r3, #4294967295
 8003648:	68f9      	ldr	r1, [r7, #12]
 800364a:	6c09      	ldr	r1, [r1, #64]	; 0x40
 800364c:	fb01 f303 	mul.w	r3, r1, r3
 8003650:	18d2      	adds	r2, r2, r3
 8003652:	68fb      	ldr	r3, [r7, #12]
 8003654:	60da      	str	r2, [r3, #12]
 8003656:	68fb      	ldr	r3, [r7, #12]
 8003658:	f04f 32ff 	mov.w	r2, #4294967295
 800365c:	645a      	str	r2, [r3, #68]	; 0x44
 800365e:	68fb      	ldr	r3, [r7, #12]
 8003660:	f04f 32ff 	mov.w	r2, #4294967295
 8003664:	649a      	str	r2, [r3, #72]	; 0x48
 8003666:	683b      	ldr	r3, [r7, #0]
 8003668:	2b00      	cmp	r3, #0
 800366a:	d10f      	bne.n	800368c <xQueueGenericReset+0x94>
 800366c:	68fb      	ldr	r3, [r7, #12]
 800366e:	691b      	ldr	r3, [r3, #16]
 8003670:	2b00      	cmp	r3, #0
 8003672:	d017      	beq.n	80036a4 <xQueueGenericReset+0xac>
 8003674:	68fb      	ldr	r3, [r7, #12]
 8003676:	f103 0310 	add.w	r3, r3, #16
 800367a:	4618      	mov	r0, r3
 800367c:	f7ff fc4e 	bl	8002f1c <xTaskRemoveFromEventList>
 8003680:	4603      	mov	r3, r0
 8003682:	2b01      	cmp	r3, #1
 8003684:	d10e      	bne.n	80036a4 <xQueueGenericReset+0xac>
 8003686:	f000 feeb 	bl	8004460 <vPortYield>
 800368a:	e00b      	b.n	80036a4 <xQueueGenericReset+0xac>
 800368c:	68fb      	ldr	r3, [r7, #12]
 800368e:	f103 0310 	add.w	r3, r3, #16
 8003692:	4618      	mov	r0, r3
 8003694:	f000 ffcc 	bl	8004630 <vListInitialise>
 8003698:	68fb      	ldr	r3, [r7, #12]
 800369a:	f103 0324 	add.w	r3, r3, #36	; 0x24
 800369e:	4618      	mov	r0, r3
 80036a0:	f000 ffc6 	bl	8004630 <vListInitialise>
 80036a4:	f000 ff02 	bl	80044ac <vPortExitCritical>
 80036a8:	f04f 0301 	mov.w	r3, #1
 80036ac:	4618      	mov	r0, r3
 80036ae:	f107 0710 	add.w	r7, r7, #16
 80036b2:	46bd      	mov	sp, r7
 80036b4:	bd80      	pop	{r7, pc}
 80036b6:	bf00      	nop

080036b8 <xQueueGenericCreate>:
 80036b8:	b580      	push	{r7, lr}
 80036ba:	b088      	sub	sp, #32
 80036bc:	af00      	add	r7, sp, #0
 80036be:	60f8      	str	r0, [r7, #12]
 80036c0:	60b9      	str	r1, [r7, #8]
 80036c2:	4613      	mov	r3, r2
 80036c4:	71fb      	strb	r3, [r7, #7]
 80036c6:	f04f 0300 	mov.w	r3, #0
 80036ca:	61fb      	str	r3, [r7, #28]
 80036cc:	68fb      	ldr	r3, [r7, #12]
 80036ce:	2b00      	cmp	r3, #0
 80036d0:	d02d      	beq.n	800372e <xQueueGenericCreate+0x76>
 80036d2:	f04f 0050 	mov.w	r0, #80	; 0x50
 80036d6:	f000 fbe5 	bl	8003ea4 <pvPortMalloc>
 80036da:	61b8      	str	r0, [r7, #24]
 80036dc:	69bb      	ldr	r3, [r7, #24]
 80036de:	2b00      	cmp	r3, #0
 80036e0:	d025      	beq.n	800372e <xQueueGenericCreate+0x76>
 80036e2:	68fb      	ldr	r3, [r7, #12]
 80036e4:	68ba      	ldr	r2, [r7, #8]
 80036e6:	fb02 f303 	mul.w	r3, r2, r3
 80036ea:	f103 0301 	add.w	r3, r3, #1
 80036ee:	617b      	str	r3, [r7, #20]
 80036f0:	6978      	ldr	r0, [r7, #20]
 80036f2:	f000 fbd7 	bl	8003ea4 <pvPortMalloc>
 80036f6:	4602      	mov	r2, r0
 80036f8:	69bb      	ldr	r3, [r7, #24]
 80036fa:	601a      	str	r2, [r3, #0]
 80036fc:	69bb      	ldr	r3, [r7, #24]
 80036fe:	681b      	ldr	r3, [r3, #0]
 8003700:	2b00      	cmp	r3, #0
 8003702:	d011      	beq.n	8003728 <xQueueGenericCreate+0x70>
 8003704:	69bb      	ldr	r3, [r7, #24]
 8003706:	68fa      	ldr	r2, [r7, #12]
 8003708:	63da      	str	r2, [r3, #60]	; 0x3c
 800370a:	69bb      	ldr	r3, [r7, #24]
 800370c:	68ba      	ldr	r2, [r7, #8]
 800370e:	641a      	str	r2, [r3, #64]	; 0x40
 8003710:	69b8      	ldr	r0, [r7, #24]
 8003712:	f04f 0101 	mov.w	r1, #1
 8003716:	f7ff ff6f 	bl	80035f8 <xQueueGenericReset>
 800371a:	69bb      	ldr	r3, [r7, #24]
 800371c:	79fa      	ldrb	r2, [r7, #7]
 800371e:	f883 204d 	strb.w	r2, [r3, #77]	; 0x4d
 8003722:	69bb      	ldr	r3, [r7, #24]
 8003724:	61fb      	str	r3, [r7, #28]
 8003726:	e002      	b.n	800372e <xQueueGenericCreate+0x76>
 8003728:	69b8      	ldr	r0, [r7, #24]
 800372a:	f000 fc6d 	bl	8004008 <vPortFree>
 800372e:	69fb      	ldr	r3, [r7, #28]
 8003730:	2b00      	cmp	r3, #0
 8003732:	d102      	bne.n	800373a <xQueueGenericCreate+0x82>
 8003734:	f000 fed4 	bl	80044e0 <ulPortSetInterruptMask>
 8003738:	e7fe      	b.n	8003738 <xQueueGenericCreate+0x80>
 800373a:	69fb      	ldr	r3, [r7, #28]
 800373c:	4618      	mov	r0, r3
 800373e:	f107 0720 	add.w	r7, r7, #32
 8003742:	46bd      	mov	sp, r7
 8003744:	bd80      	pop	{r7, pc}
 8003746:	bf00      	nop

08003748 <xQueueCreateMutex>:
 8003748:	b580      	push	{r7, lr}
 800374a:	b084      	sub	sp, #16
 800374c:	af00      	add	r7, sp, #0
 800374e:	4603      	mov	r3, r0
 8003750:	71fb      	strb	r3, [r7, #7]
 8003752:	f04f 0050 	mov.w	r0, #80	; 0x50
 8003756:	f000 fba5 	bl	8003ea4 <pvPortMalloc>
 800375a:	60f8      	str	r0, [r7, #12]
 800375c:	68fb      	ldr	r3, [r7, #12]
 800375e:	2b00      	cmp	r3, #0
 8003760:	d03c      	beq.n	80037dc <xQueueCreateMutex+0x94>
 8003762:	68fb      	ldr	r3, [r7, #12]
 8003764:	f04f 0200 	mov.w	r2, #0
 8003768:	605a      	str	r2, [r3, #4]
 800376a:	68fb      	ldr	r3, [r7, #12]
 800376c:	f04f 0200 	mov.w	r2, #0
 8003770:	601a      	str	r2, [r3, #0]
 8003772:	68fb      	ldr	r3, [r7, #12]
 8003774:	f04f 0200 	mov.w	r2, #0
 8003778:	609a      	str	r2, [r3, #8]
 800377a:	68fb      	ldr	r3, [r7, #12]
 800377c:	f04f 0200 	mov.w	r2, #0
 8003780:	60da      	str	r2, [r3, #12]
 8003782:	68fb      	ldr	r3, [r7, #12]
 8003784:	f04f 0200 	mov.w	r2, #0
 8003788:	639a      	str	r2, [r3, #56]	; 0x38
 800378a:	68fb      	ldr	r3, [r7, #12]
 800378c:	f04f 0201 	mov.w	r2, #1
 8003790:	63da      	str	r2, [r3, #60]	; 0x3c
 8003792:	68fb      	ldr	r3, [r7, #12]
 8003794:	f04f 0200 	mov.w	r2, #0
 8003798:	641a      	str	r2, [r3, #64]	; 0x40
 800379a:	68fb      	ldr	r3, [r7, #12]
 800379c:	f04f 32ff 	mov.w	r2, #4294967295
 80037a0:	645a      	str	r2, [r3, #68]	; 0x44
 80037a2:	68fb      	ldr	r3, [r7, #12]
 80037a4:	f04f 32ff 	mov.w	r2, #4294967295
 80037a8:	649a      	str	r2, [r3, #72]	; 0x48
 80037aa:	68fb      	ldr	r3, [r7, #12]
 80037ac:	79fa      	ldrb	r2, [r7, #7]
 80037ae:	f883 204d 	strb.w	r2, [r3, #77]	; 0x4d
 80037b2:	68fb      	ldr	r3, [r7, #12]
 80037b4:	f103 0310 	add.w	r3, r3, #16
 80037b8:	4618      	mov	r0, r3
 80037ba:	f000 ff39 	bl	8004630 <vListInitialise>
 80037be:	68fb      	ldr	r3, [r7, #12]
 80037c0:	f103 0324 	add.w	r3, r3, #36	; 0x24
 80037c4:	4618      	mov	r0, r3
 80037c6:	f000 ff33 	bl	8004630 <vListInitialise>
 80037ca:	68f8      	ldr	r0, [r7, #12]
 80037cc:	f04f 0100 	mov.w	r1, #0
 80037d0:	f04f 0200 	mov.w	r2, #0
 80037d4:	f04f 0300 	mov.w	r3, #0
 80037d8:	f000 f80c 	bl	80037f4 <xQueueGenericSend>
 80037dc:	68fb      	ldr	r3, [r7, #12]
 80037de:	2b00      	cmp	r3, #0
 80037e0:	d102      	bne.n	80037e8 <xQueueCreateMutex+0xa0>
 80037e2:	f000 fe7d 	bl	80044e0 <ulPortSetInterruptMask>
 80037e6:	e7fe      	b.n	80037e6 <xQueueCreateMutex+0x9e>
 80037e8:	68fb      	ldr	r3, [r7, #12]
 80037ea:	4618      	mov	r0, r3
 80037ec:	f107 0710 	add.w	r7, r7, #16
 80037f0:	46bd      	mov	sp, r7
 80037f2:	bd80      	pop	{r7, pc}

080037f4 <xQueueGenericSend>:
 80037f4:	b580      	push	{r7, lr}
 80037f6:	b088      	sub	sp, #32
 80037f8:	af00      	add	r7, sp, #0
 80037fa:	60f8      	str	r0, [r7, #12]
 80037fc:	60b9      	str	r1, [r7, #8]
 80037fe:	607a      	str	r2, [r7, #4]
 8003800:	603b      	str	r3, [r7, #0]
 8003802:	f04f 0300 	mov.w	r3, #0
 8003806:	61fb      	str	r3, [r7, #28]
 8003808:	68fb      	ldr	r3, [r7, #12]
 800380a:	61bb      	str	r3, [r7, #24]
 800380c:	69bb      	ldr	r3, [r7, #24]
 800380e:	2b00      	cmp	r3, #0
 8003810:	d102      	bne.n	8003818 <xQueueGenericSend+0x24>
 8003812:	f000 fe65 	bl	80044e0 <ulPortSetInterruptMask>
 8003816:	e7fe      	b.n	8003816 <xQueueGenericSend+0x22>
 8003818:	68bb      	ldr	r3, [r7, #8]
 800381a:	2b00      	cmp	r3, #0
 800381c:	d103      	bne.n	8003826 <xQueueGenericSend+0x32>
 800381e:	69bb      	ldr	r3, [r7, #24]
 8003820:	6c1b      	ldr	r3, [r3, #64]	; 0x40
 8003822:	2b00      	cmp	r3, #0
 8003824:	d102      	bne.n	800382c <xQueueGenericSend+0x38>
 8003826:	f04f 0301 	mov.w	r3, #1
 800382a:	e001      	b.n	8003830 <xQueueGenericSend+0x3c>
 800382c:	f04f 0300 	mov.w	r3, #0
 8003830:	2b00      	cmp	r3, #0
 8003832:	d102      	bne.n	800383a <xQueueGenericSend+0x46>
 8003834:	f000 fe54 	bl	80044e0 <ulPortSetInterruptMask>
 8003838:	e7fe      	b.n	8003838 <xQueueGenericSend+0x44>
 800383a:	683b      	ldr	r3, [r7, #0]
 800383c:	2b02      	cmp	r3, #2
 800383e:	d103      	bne.n	8003848 <xQueueGenericSend+0x54>
 8003840:	69bb      	ldr	r3, [r7, #24]
 8003842:	6bdb      	ldr	r3, [r3, #60]	; 0x3c
 8003844:	2b01      	cmp	r3, #1
 8003846:	d102      	bne.n	800384e <xQueueGenericSend+0x5a>
 8003848:	f04f 0301 	mov.w	r3, #1
 800384c:	e001      	b.n	8003852 <xQueueGenericSend+0x5e>
 800384e:	f04f 0300 	mov.w	r3, #0
 8003852:	2b00      	cmp	r3, #0
 8003854:	d103      	bne.n	800385e <xQueueGenericSend+0x6a>
 8003856:	f000 fe43 	bl	80044e0 <ulPortSetInterruptMask>
 800385a:	e7fe      	b.n	800385a <xQueueGenericSend+0x66>
 800385c:	bf00      	nop
 800385e:	f000 fe0f 	bl	8004480 <vPortEnterCritical>
 8003862:	69bb      	ldr	r3, [r7, #24]
 8003864:	6b9a      	ldr	r2, [r3, #56]	; 0x38
 8003866:	69bb      	ldr	r3, [r7, #24]
 8003868:	6bdb      	ldr	r3, [r3, #60]	; 0x3c
 800386a:	429a      	cmp	r2, r3
 800386c:	d302      	bcc.n	8003874 <xQueueGenericSend+0x80>
 800386e:	683b      	ldr	r3, [r7, #0]
 8003870:	2b02      	cmp	r3, #2
 8003872:	d118      	bne.n	80038a6 <xQueueGenericSend+0xb2>
 8003874:	69b8      	ldr	r0, [r7, #24]
 8003876:	68b9      	ldr	r1, [r7, #8]
 8003878:	683a      	ldr	r2, [r7, #0]
 800387a:	f000 f9c7 	bl	8003c0c <prvCopyDataToQueue>
 800387e:	69bb      	ldr	r3, [r7, #24]
 8003880:	6a5b      	ldr	r3, [r3, #36]	; 0x24
 8003882:	2b00      	cmp	r3, #0
 8003884:	d00a      	beq.n	800389c <xQueueGenericSend+0xa8>
 8003886:	69bb      	ldr	r3, [r7, #24]
 8003888:	f103 0324 	add.w	r3, r3, #36	; 0x24
 800388c:	4618      	mov	r0, r3
 800388e:	f7ff fb45 	bl	8002f1c <xTaskRemoveFromEventList>
 8003892:	4603      	mov	r3, r0
 8003894:	2b01      	cmp	r3, #1
 8003896:	d101      	bne.n	800389c <xQueueGenericSend+0xa8>
 8003898:	f000 fde2 	bl	8004460 <vPortYield>
 800389c:	f000 fe06 	bl	80044ac <vPortExitCritical>
 80038a0:	f04f 0301 	mov.w	r3, #1
 80038a4:	e05d      	b.n	8003962 <xQueueGenericSend+0x16e>
 80038a6:	687b      	ldr	r3, [r7, #4]
 80038a8:	2b00      	cmp	r3, #0
 80038aa:	d104      	bne.n	80038b6 <xQueueGenericSend+0xc2>
 80038ac:	f000 fdfe 	bl	80044ac <vPortExitCritical>
 80038b0:	f04f 0300 	mov.w	r3, #0
 80038b4:	e055      	b.n	8003962 <xQueueGenericSend+0x16e>
 80038b6:	69fb      	ldr	r3, [r7, #28]
 80038b8:	2b00      	cmp	r3, #0
 80038ba:	d107      	bne.n	80038cc <xQueueGenericSend+0xd8>
 80038bc:	f107 0310 	add.w	r3, r7, #16
 80038c0:	4618      	mov	r0, r3
 80038c2:	f7ff fb99 	bl	8002ff8 <vTaskSetTimeOutState>
 80038c6:	f04f 0301 	mov.w	r3, #1
 80038ca:	61fb      	str	r3, [r7, #28]
 80038cc:	f000 fdee 	bl	80044ac <vPortExitCritical>
 80038d0:	f7fe fffc 	bl	80028cc <vTaskSuspendAll>
 80038d4:	f000 fdd4 	bl	8004480 <vPortEnterCritical>
 80038d8:	69bb      	ldr	r3, [r7, #24]
 80038da:	6c5b      	ldr	r3, [r3, #68]	; 0x44
 80038dc:	f1b3 3fff 	cmp.w	r3, #4294967295
 80038e0:	d103      	bne.n	80038ea <xQueueGenericSend+0xf6>
 80038e2:	69bb      	ldr	r3, [r7, #24]
 80038e4:	f04f 0200 	mov.w	r2, #0
 80038e8:	645a      	str	r2, [r3, #68]	; 0x44
 80038ea:	69bb      	ldr	r3, [r7, #24]
 80038ec:	6c9b      	ldr	r3, [r3, #72]	; 0x48
 80038ee:	f1b3 3fff 	cmp.w	r3, #4294967295
 80038f2:	d103      	bne.n	80038fc <xQueueGenericSend+0x108>
 80038f4:	69bb      	ldr	r3, [r7, #24]
 80038f6:	f04f 0200 	mov.w	r2, #0
 80038fa:	649a      	str	r2, [r3, #72]	; 0x48
 80038fc:	f000 fdd6 	bl	80044ac <vPortExitCritical>
 8003900:	f107 0210 	add.w	r2, r7, #16
 8003904:	f107 0304 	add.w	r3, r7, #4
 8003908:	4610      	mov	r0, r2
 800390a:	4619      	mov	r1, r3
 800390c:	f7ff fb90 	bl	8003030 <xTaskCheckForTimeOut>
 8003910:	4603      	mov	r3, r0
 8003912:	2b00      	cmp	r3, #0
 8003914:	d11e      	bne.n	8003954 <xQueueGenericSend+0x160>
 8003916:	69b8      	ldr	r0, [r7, #24]
 8003918:	f000 fa78 	bl	8003e0c <prvIsQueueFull>
 800391c:	4603      	mov	r3, r0
 800391e:	2b00      	cmp	r3, #0
 8003920:	d012      	beq.n	8003948 <xQueueGenericSend+0x154>
 8003922:	69bb      	ldr	r3, [r7, #24]
 8003924:	f103 0210 	add.w	r2, r3, #16
 8003928:	687b      	ldr	r3, [r7, #4]
 800392a:	4610      	mov	r0, r2
 800392c:	4619      	mov	r1, r3
 800392e:	f7ff fa83 	bl	8002e38 <vTaskPlaceOnEventList>
 8003932:	69b8      	ldr	r0, [r7, #24]
 8003934:	f000 fa00 	bl	8003d38 <prvUnlockQueue>
 8003938:	f7fe ffda 	bl	80028f0 <xTaskResumeAll>
 800393c:	4603      	mov	r3, r0
 800393e:	2b00      	cmp	r3, #0
 8003940:	d18c      	bne.n	800385c <xQueueGenericSend+0x68>
 8003942:	f000 fd8d 	bl	8004460 <vPortYield>
 8003946:	e789      	b.n	800385c <xQueueGenericSend+0x68>
 8003948:	69b8      	ldr	r0, [r7, #24]
 800394a:	f000 f9f5 	bl	8003d38 <prvUnlockQueue>
 800394e:	f7fe ffcf 	bl	80028f0 <xTaskResumeAll>
 8003952:	e783      	b.n	800385c <xQueueGenericSend+0x68>
 8003954:	69b8      	ldr	r0, [r7, #24]
 8003956:	f000 f9ef 	bl	8003d38 <prvUnlockQueue>
 800395a:	f7fe ffc9 	bl	80028f0 <xTaskResumeAll>
 800395e:	f04f 0300 	mov.w	r3, #0
 8003962:	4618      	mov	r0, r3
 8003964:	f107 0720 	add.w	r7, r7, #32
 8003968:	46bd      	mov	sp, r7
 800396a:	bd80      	pop	{r7, pc}

0800396c <xQueueGenericSendFromISR>:
 800396c:	b580      	push	{r7, lr}
 800396e:	b088      	sub	sp, #32
 8003970:	af00      	add	r7, sp, #0
 8003972:	60f8      	str	r0, [r7, #12]
 8003974:	60b9      	str	r1, [r7, #8]
 8003976:	607a      	str	r2, [r7, #4]
 8003978:	603b      	str	r3, [r7, #0]
 800397a:	68fb      	ldr	r3, [r7, #12]
 800397c:	61bb      	str	r3, [r7, #24]
 800397e:	69bb      	ldr	r3, [r7, #24]
 8003980:	2b00      	cmp	r3, #0
 8003982:	d102      	bne.n	800398a <xQueueGenericSendFromISR+0x1e>
 8003984:	f000 fdac 	bl	80044e0 <ulPortSetInterruptMask>
 8003988:	e7fe      	b.n	8003988 <xQueueGenericSendFromISR+0x1c>
 800398a:	68bb      	ldr	r3, [r7, #8]
 800398c:	2b00      	cmp	r3, #0
 800398e:	d103      	bne.n	8003998 <xQueueGenericSendFromISR+0x2c>
 8003990:	69bb      	ldr	r3, [r7, #24]
 8003992:	6c1b      	ldr	r3, [r3, #64]	; 0x40
 8003994:	2b00      	cmp	r3, #0
 8003996:	d102      	bne.n	800399e <xQueueGenericSendFromISR+0x32>
 8003998:	f04f 0301 	mov.w	r3, #1
 800399c:	e001      	b.n	80039a2 <xQueueGenericSendFromISR+0x36>
 800399e:	f04f 0300 	mov.w	r3, #0
 80039a2:	2b00      	cmp	r3, #0
 80039a4:	d102      	bne.n	80039ac <xQueueGenericSendFromISR+0x40>
 80039a6:	f000 fd9b 	bl	80044e0 <ulPortSetInterruptMask>
 80039aa:	e7fe      	b.n	80039aa <xQueueGenericSendFromISR+0x3e>
 80039ac:	683b      	ldr	r3, [r7, #0]
 80039ae:	2b02      	cmp	r3, #2
 80039b0:	d103      	bne.n	80039ba <xQueueGenericSendFromISR+0x4e>
 80039b2:	69bb      	ldr	r3, [r7, #24]
 80039b4:	6bdb      	ldr	r3, [r3, #60]	; 0x3c
 80039b6:	2b01      	cmp	r3, #1
 80039b8:	d102      	bne.n	80039c0 <xQueueGenericSendFromISR+0x54>
 80039ba:	f04f 0301 	mov.w	r3, #1
 80039be:	e001      	b.n	80039c4 <xQueueGenericSendFromISR+0x58>
 80039c0:	f04f 0300 	mov.w	r3, #0
 80039c4:	2b00      	cmp	r3, #0
 80039c6:	d102      	bne.n	80039ce <xQueueGenericSendFromISR+0x62>
 80039c8:	f000 fd8a 	bl	80044e0 <ulPortSetInterruptMask>
 80039cc:	e7fe      	b.n	80039cc <xQueueGenericSendFromISR+0x60>
 80039ce:	f000 fdfd 	bl	80045cc <vPortValidateInterruptPriority>
 80039d2:	f000 fd85 	bl	80044e0 <ulPortSetInterruptMask>
 80039d6:	6178      	str	r0, [r7, #20]
 80039d8:	69bb      	ldr	r3, [r7, #24]
 80039da:	6b9a      	ldr	r2, [r3, #56]	; 0x38
 80039dc:	69bb      	ldr	r3, [r7, #24]
 80039de:	6bdb      	ldr	r3, [r3, #60]	; 0x3c
 80039e0:	429a      	cmp	r2, r3
 80039e2:	d302      	bcc.n	80039ea <xQueueGenericSendFromISR+0x7e>
 80039e4:	683b      	ldr	r3, [r7, #0]
 80039e6:	2b02      	cmp	r3, #2
 80039e8:	d128      	bne.n	8003a3c <xQueueGenericSendFromISR+0xd0>
 80039ea:	69b8      	ldr	r0, [r7, #24]
 80039ec:	68b9      	ldr	r1, [r7, #8]
 80039ee:	683a      	ldr	r2, [r7, #0]
 80039f0:	f000 f90c 	bl	8003c0c <prvCopyDataToQueue>
 80039f4:	69bb      	ldr	r3, [r7, #24]
 80039f6:	6c9b      	ldr	r3, [r3, #72]	; 0x48
 80039f8:	f1b3 3fff 	cmp.w	r3, #4294967295
 80039fc:	d114      	bne.n	8003a28 <xQueueGenericSendFromISR+0xbc>
 80039fe:	69bb      	ldr	r3, [r7, #24]
 8003a00:	6a5b      	ldr	r3, [r3, #36]	; 0x24
 8003a02:	2b00      	cmp	r3, #0
 8003a04:	d016      	beq.n	8003a34 <xQueueGenericSendFromISR+0xc8>
 8003a06:	69bb      	ldr	r3, [r7, #24]
 8003a08:	f103 0324 	add.w	r3, r3, #36	; 0x24
 8003a0c:	4618      	mov	r0, r3
 8003a0e:	f7ff fa85 	bl	8002f1c <xTaskRemoveFromEventList>
 8003a12:	4603      	mov	r3, r0
 8003a14:	2b00      	cmp	r3, #0
 8003a16:	d00d      	beq.n	8003a34 <xQueueGenericSendFromISR+0xc8>
 8003a18:	687b      	ldr	r3, [r7, #4]
 8003a1a:	2b00      	cmp	r3, #0
 8003a1c:	d00a      	beq.n	8003a34 <xQueueGenericSendFromISR+0xc8>
 8003a1e:	687b      	ldr	r3, [r7, #4]
 8003a20:	f04f 0201 	mov.w	r2, #1
 8003a24:	601a      	str	r2, [r3, #0]
 8003a26:	e005      	b.n	8003a34 <xQueueGenericSendFromISR+0xc8>
 8003a28:	69bb      	ldr	r3, [r7, #24]
 8003a2a:	6c9b      	ldr	r3, [r3, #72]	; 0x48
 8003a2c:	f103 0201 	add.w	r2, r3, #1
 8003a30:	69bb      	ldr	r3, [r7, #24]
 8003a32:	649a      	str	r2, [r3, #72]	; 0x48
 8003a34:	f04f 0301 	mov.w	r3, #1
 8003a38:	61fb      	str	r3, [r7, #28]
 8003a3a:	e002      	b.n	8003a42 <xQueueGenericSendFromISR+0xd6>
 8003a3c:	f04f 0300 	mov.w	r3, #0
 8003a40:	61fb      	str	r3, [r7, #28]
 8003a42:	6978      	ldr	r0, [r7, #20]
 8003a44:	f000 fd56 	bl	80044f4 <vPortClearInterruptMask>
 8003a48:	69fb      	ldr	r3, [r7, #28]
 8003a4a:	4618      	mov	r0, r3
 8003a4c:	f107 0720 	add.w	r7, r7, #32
 8003a50:	46bd      	mov	sp, r7
 8003a52:	bd80      	pop	{r7, pc}

08003a54 <xQueueGenericReceive>:
 8003a54:	b580      	push	{r7, lr}
 8003a56:	b08a      	sub	sp, #40	; 0x28
 8003a58:	af00      	add	r7, sp, #0
 8003a5a:	60f8      	str	r0, [r7, #12]
 8003a5c:	60b9      	str	r1, [r7, #8]
 8003a5e:	607a      	str	r2, [r7, #4]
 8003a60:	603b      	str	r3, [r7, #0]
 8003a62:	f04f 0300 	mov.w	r3, #0
 8003a66:	627b      	str	r3, [r7, #36]	; 0x24
 8003a68:	68fb      	ldr	r3, [r7, #12]
 8003a6a:	623b      	str	r3, [r7, #32]
 8003a6c:	6a3b      	ldr	r3, [r7, #32]
 8003a6e:	2b00      	cmp	r3, #0
 8003a70:	d102      	bne.n	8003a78 <xQueueGenericReceive+0x24>
 8003a72:	f000 fd35 	bl	80044e0 <ulPortSetInterruptMask>
 8003a76:	e7fe      	b.n	8003a76 <xQueueGenericReceive+0x22>
 8003a78:	68bb      	ldr	r3, [r7, #8]
 8003a7a:	2b00      	cmp	r3, #0
 8003a7c:	d103      	bne.n	8003a86 <xQueueGenericReceive+0x32>
 8003a7e:	6a3b      	ldr	r3, [r7, #32]
 8003a80:	6c1b      	ldr	r3, [r3, #64]	; 0x40
 8003a82:	2b00      	cmp	r3, #0
 8003a84:	d102      	bne.n	8003a8c <xQueueGenericReceive+0x38>
 8003a86:	f04f 0301 	mov.w	r3, #1
 8003a8a:	e001      	b.n	8003a90 <xQueueGenericReceive+0x3c>
 8003a8c:	f04f 0300 	mov.w	r3, #0
 8003a90:	2b00      	cmp	r3, #0
 8003a92:	d103      	bne.n	8003a9c <xQueueGenericReceive+0x48>
 8003a94:	f000 fd24 	bl	80044e0 <ulPortSetInterruptMask>
 8003a98:	e7fe      	b.n	8003a98 <xQueueGenericReceive+0x44>
 8003a9a:	bf00      	nop
 8003a9c:	f000 fcf0 	bl	8004480 <vPortEnterCritical>
 8003aa0:	6a3b      	ldr	r3, [r7, #32]
 8003aa2:	6b9b      	ldr	r3, [r3, #56]	; 0x38
 8003aa4:	2b00      	cmp	r3, #0
 8003aa6:	d03f      	beq.n	8003b28 <xQueueGenericReceive+0xd4>
 8003aa8:	6a3b      	ldr	r3, [r7, #32]
 8003aaa:	68db      	ldr	r3, [r3, #12]
 8003aac:	61fb      	str	r3, [r7, #28]
 8003aae:	6a38      	ldr	r0, [r7, #32]
 8003ab0:	68b9      	ldr	r1, [r7, #8]
 8003ab2:	f000 f919 	bl	8003ce8 <prvCopyDataFromQueue>
 8003ab6:	683b      	ldr	r3, [r7, #0]
 8003ab8:	2b00      	cmp	r3, #0
 8003aba:	d11e      	bne.n	8003afa <xQueueGenericReceive+0xa6>
 8003abc:	6a3b      	ldr	r3, [r7, #32]
 8003abe:	6b9b      	ldr	r3, [r3, #56]	; 0x38
 8003ac0:	f103 32ff 	add.w	r2, r3, #4294967295
 8003ac4:	6a3b      	ldr	r3, [r7, #32]
 8003ac6:	639a      	str	r2, [r3, #56]	; 0x38
 8003ac8:	6a3b      	ldr	r3, [r7, #32]
 8003aca:	681b      	ldr	r3, [r3, #0]
 8003acc:	2b00      	cmp	r3, #0
 8003ace:	d104      	bne.n	8003ada <xQueueGenericReceive+0x86>
 8003ad0:	f7ff fca2 	bl	8003418 <xTaskGetCurrentTaskHandle>
 8003ad4:	4602      	mov	r2, r0
 8003ad6:	6a3b      	ldr	r3, [r7, #32]
 8003ad8:	605a      	str	r2, [r3, #4]
 8003ada:	6a3b      	ldr	r3, [r7, #32]
 8003adc:	691b      	ldr	r3, [r3, #16]
 8003ade:	2b00      	cmp	r3, #0
 8003ae0:	d01d      	beq.n	8003b1e <xQueueGenericReceive+0xca>
 8003ae2:	6a3b      	ldr	r3, [r7, #32]
 8003ae4:	f103 0310 	add.w	r3, r3, #16
 8003ae8:	4618      	mov	r0, r3
 8003aea:	f7ff fa17 	bl	8002f1c <xTaskRemoveFromEventList>
 8003aee:	4603      	mov	r3, r0
 8003af0:	2b01      	cmp	r3, #1
 8003af2:	d114      	bne.n	8003b1e <xQueueGenericReceive+0xca>
 8003af4:	f000 fcb4 	bl	8004460 <vPortYield>
 8003af8:	e011      	b.n	8003b1e <xQueueGenericReceive+0xca>
 8003afa:	6a3b      	ldr	r3, [r7, #32]
 8003afc:	69fa      	ldr	r2, [r7, #28]
 8003afe:	60da      	str	r2, [r3, #12]
 8003b00:	6a3b      	ldr	r3, [r7, #32]
 8003b02:	6a5b      	ldr	r3, [r3, #36]	; 0x24
 8003b04:	2b00      	cmp	r3, #0
 8003b06:	d00a      	beq.n	8003b1e <xQueueGenericReceive+0xca>
 8003b08:	6a3b      	ldr	r3, [r7, #32]
 8003b0a:	f103 0324 	add.w	r3, r3, #36	; 0x24
 8003b0e:	4618      	mov	r0, r3
 8003b10:	f7ff fa04 	bl	8002f1c <xTaskRemoveFromEventList>
 8003b14:	4603      	mov	r3, r0
 8003b16:	2b00      	cmp	r3, #0
 8003b18:	d001      	beq.n	8003b1e <xQueueGenericReceive+0xca>
 8003b1a:	f000 fca1 	bl	8004460 <vPortYield>
 8003b1e:	f000 fcc5 	bl	80044ac <vPortExitCritical>
 8003b22:	f04f 0301 	mov.w	r3, #1
 8003b26:	e06b      	b.n	8003c00 <xQueueGenericReceive+0x1ac>
 8003b28:	687b      	ldr	r3, [r7, #4]
 8003b2a:	2b00      	cmp	r3, #0
 8003b2c:	d104      	bne.n	8003b38 <xQueueGenericReceive+0xe4>
 8003b2e:	f000 fcbd 	bl	80044ac <vPortExitCritical>
 8003b32:	f04f 0300 	mov.w	r3, #0
 8003b36:	e063      	b.n	8003c00 <xQueueGenericReceive+0x1ac>
 8003b38:	6a7b      	ldr	r3, [r7, #36]	; 0x24
 8003b3a:	2b00      	cmp	r3, #0
 8003b3c:	d107      	bne.n	8003b4e <xQueueGenericReceive+0xfa>
 8003b3e:	f107 0314 	add.w	r3, r7, #20
 8003b42:	4618      	mov	r0, r3
 8003b44:	f7ff fa58 	bl	8002ff8 <vTaskSetTimeOutState>
 8003b48:	f04f 0301 	mov.w	r3, #1
 8003b4c:	627b      	str	r3, [r7, #36]	; 0x24
 8003b4e:	f000 fcad 	bl	80044ac <vPortExitCritical>
 8003b52:	f7fe febb 	bl	80028cc <vTaskSuspendAll>
 8003b56:	f000 fc93 	bl	8004480 <vPortEnterCritical>
 8003b5a:	6a3b      	ldr	r3, [r7, #32]
 8003b5c:	6c5b      	ldr	r3, [r3, #68]	; 0x44
 8003b5e:	f1b3 3fff 	cmp.w	r3, #4294967295
 8003b62:	d103      	bne.n	8003b6c <xQueueGenericReceive+0x118>
 8003b64:	6a3b      	ldr	r3, [r7, #32]
 8003b66:	f04f 0200 	mov.w	r2, #0
 8003b6a:	645a      	str	r2, [r3, #68]	; 0x44
 8003b6c:	6a3b      	ldr	r3, [r7, #32]
 8003b6e:	6c9b      	ldr	r3, [r3, #72]	; 0x48
 8003b70:	f1b3 3fff 	cmp.w	r3, #4294967295
 8003b74:	d103      	bne.n	8003b7e <xQueueGenericReceive+0x12a>
 8003b76:	6a3b      	ldr	r3, [r7, #32]
 8003b78:	f04f 0200 	mov.w	r2, #0
 8003b7c:	649a      	str	r2, [r3, #72]	; 0x48
 8003b7e:	f000 fc95 	bl	80044ac <vPortExitCritical>
 8003b82:	f107 0214 	add.w	r2, r7, #20
 8003b86:	f107 0304 	add.w	r3, r7, #4
 8003b8a:	4610      	mov	r0, r2
 8003b8c:	4619      	mov	r1, r3
 8003b8e:	f7ff fa4f 	bl	8003030 <xTaskCheckForTimeOut>
 8003b92:	4603      	mov	r3, r0
 8003b94:	2b00      	cmp	r3, #0
 8003b96:	d12c      	bne.n	8003bf2 <xQueueGenericReceive+0x19e>
 8003b98:	6a38      	ldr	r0, [r7, #32]
 8003b9a:	f000 f91d 	bl	8003dd8 <prvIsQueueEmpty>
 8003b9e:	4603      	mov	r3, r0
 8003ba0:	2b00      	cmp	r3, #0
 8003ba2:	d020      	beq.n	8003be6 <xQueueGenericReceive+0x192>
 8003ba4:	6a3b      	ldr	r3, [r7, #32]
 8003ba6:	681b      	ldr	r3, [r3, #0]
 8003ba8:	2b00      	cmp	r3, #0
 8003baa:	d108      	bne.n	8003bbe <xQueueGenericReceive+0x16a>
 8003bac:	f000 fc68 	bl	8004480 <vPortEnterCritical>
 8003bb0:	6a3b      	ldr	r3, [r7, #32]
 8003bb2:	685b      	ldr	r3, [r3, #4]
 8003bb4:	4618      	mov	r0, r3
 8003bb6:	f7ff fc63 	bl	8003480 <vTaskPriorityInherit>
 8003bba:	f000 fc77 	bl	80044ac <vPortExitCritical>
 8003bbe:	6a3b      	ldr	r3, [r7, #32]
 8003bc0:	f103 0224 	add.w	r2, r3, #36	; 0x24
 8003bc4:	687b      	ldr	r3, [r7, #4]
 8003bc6:	4610      	mov	r0, r2
 8003bc8:	4619      	mov	r1, r3
 8003bca:	f7ff f935 	bl	8002e38 <vTaskPlaceOnEventList>
 8003bce:	6a38      	ldr	r0, [r7, #32]
 8003bd0:	f000 f8b2 	bl	8003d38 <prvUnlockQueue>
 8003bd4:	f7fe fe8c 	bl	80028f0 <xTaskResumeAll>
 8003bd8:	4603      	mov	r3, r0
 8003bda:	2b00      	cmp	r3, #0
 8003bdc:	f47f af5d 	bne.w	8003a9a <xQueueGenericReceive+0x46>
 8003be0:	f000 fc3e 	bl	8004460 <vPortYield>
 8003be4:	e759      	b.n	8003a9a <xQueueGenericReceive+0x46>
 8003be6:	6a38      	ldr	r0, [r7, #32]
 8003be8:	f000 f8a6 	bl	8003d38 <prvUnlockQueue>
 8003bec:	f7fe fe80 	bl	80028f0 <xTaskResumeAll>
 8003bf0:	e753      	b.n	8003a9a <xQueueGenericReceive+0x46>
 8003bf2:	6a38      	ldr	r0, [r7, #32]
 8003bf4:	f000 f8a0 	bl	8003d38 <prvUnlockQueue>
 8003bf8:	f7fe fe7a 	bl	80028f0 <xTaskResumeAll>
 8003bfc:	f04f 0300 	mov.w	r3, #0
 8003c00:	4618      	mov	r0, r3
 8003c02:	f107 0728 	add.w	r7, r7, #40	; 0x28
 8003c06:	46bd      	mov	sp, r7
 8003c08:	bd80      	pop	{r7, pc}
 8003c0a:	bf00      	nop

08003c0c <prvCopyDataToQueue>:
 8003c0c:	b580      	push	{r7, lr}
 8003c0e:	b084      	sub	sp, #16
 8003c10:	af00      	add	r7, sp, #0
 8003c12:	60f8      	str	r0, [r7, #12]
 8003c14:	60b9      	str	r1, [r7, #8]
 8003c16:	607a      	str	r2, [r7, #4]
 8003c18:	68fb      	ldr	r3, [r7, #12]
 8003c1a:	6c1b      	ldr	r3, [r3, #64]	; 0x40
 8003c1c:	2b00      	cmp	r3, #0
 8003c1e:	d10d      	bne.n	8003c3c <prvCopyDataToQueue+0x30>
 8003c20:	68fb      	ldr	r3, [r7, #12]
 8003c22:	681b      	ldr	r3, [r3, #0]
 8003c24:	2b00      	cmp	r3, #0
 8003c26:	d155      	bne.n	8003cd4 <prvCopyDataToQueue+0xc8>
 8003c28:	68fb      	ldr	r3, [r7, #12]
 8003c2a:	685b      	ldr	r3, [r3, #4]
 8003c2c:	4618      	mov	r0, r3
 8003c2e:	f7ff fc9b 	bl	8003568 <vTaskPriorityDisinherit>
 8003c32:	68fb      	ldr	r3, [r7, #12]
 8003c34:	f04f 0200 	mov.w	r2, #0
 8003c38:	605a      	str	r2, [r3, #4]
 8003c3a:	e04b      	b.n	8003cd4 <prvCopyDataToQueue+0xc8>
 8003c3c:	687b      	ldr	r3, [r7, #4]
 8003c3e:	2b00      	cmp	r3, #0
 8003c40:	d11a      	bne.n	8003c78 <prvCopyDataToQueue+0x6c>
 8003c42:	68fb      	ldr	r3, [r7, #12]
 8003c44:	689a      	ldr	r2, [r3, #8]
 8003c46:	68fb      	ldr	r3, [r7, #12]
 8003c48:	6c1b      	ldr	r3, [r3, #64]	; 0x40
 8003c4a:	4610      	mov	r0, r2
 8003c4c:	68b9      	ldr	r1, [r7, #8]
 8003c4e:	461a      	mov	r2, r3
 8003c50:	f001 f89b 	bl	8004d8a <memcpy>
 8003c54:	68fb      	ldr	r3, [r7, #12]
 8003c56:	689a      	ldr	r2, [r3, #8]
 8003c58:	68fb      	ldr	r3, [r7, #12]
 8003c5a:	6c1b      	ldr	r3, [r3, #64]	; 0x40
 8003c5c:	18d2      	adds	r2, r2, r3
 8003c5e:	68fb      	ldr	r3, [r7, #12]
 8003c60:	609a      	str	r2, [r3, #8]
 8003c62:	68fb      	ldr	r3, [r7, #12]
 8003c64:	689a      	ldr	r2, [r3, #8]
 8003c66:	68fb      	ldr	r3, [r7, #12]
 8003c68:	685b      	ldr	r3, [r3, #4]
 8003c6a:	429a      	cmp	r2, r3
 8003c6c:	d332      	bcc.n	8003cd4 <prvCopyDataToQueue+0xc8>
 8003c6e:	68fb      	ldr	r3, [r7, #12]
 8003c70:	681a      	ldr	r2, [r3, #0]
 8003c72:	68fb      	ldr	r3, [r7, #12]
 8003c74:	609a      	str	r2, [r3, #8]
 8003c76:	e02d      	b.n	8003cd4 <prvCopyDataToQueue+0xc8>
 8003c78:	68fb      	ldr	r3, [r7, #12]
 8003c7a:	68da      	ldr	r2, [r3, #12]
 8003c7c:	68fb      	ldr	r3, [r7, #12]
 8003c7e:	6c1b      	ldr	r3, [r3, #64]	; 0x40
 8003c80:	4610      	mov	r0, r2
 8003c82:	68b9      	ldr	r1, [r7, #8]
 8003c84:	461a      	mov	r2, r3
 8003c86:	f001 f880 	bl	8004d8a <memcpy>
 8003c8a:	68fb      	ldr	r3, [r7, #12]
 8003c8c:	68da      	ldr	r2, [r3, #12]
 8003c8e:	68fb      	ldr	r3, [r7, #12]
 8003c90:	6c1b      	ldr	r3, [r3, #64]	; 0x40
 8003c92:	f1c3 0300 	rsb	r3, r3, #0
 8003c96:	18d2      	adds	r2, r2, r3
 8003c98:	68fb      	ldr	r3, [r7, #12]
 8003c9a:	60da      	str	r2, [r3, #12]
 8003c9c:	68fb      	ldr	r3, [r7, #12]
 8003c9e:	68da      	ldr	r2, [r3, #12]
 8003ca0:	68fb      	ldr	r3, [r7, #12]
 8003ca2:	681b      	ldr	r3, [r3, #0]
 8003ca4:	429a      	cmp	r2, r3
 8003ca6:	d208      	bcs.n	8003cba <prvCopyDataToQueue+0xae>
 8003ca8:	68fb      	ldr	r3, [r7, #12]
 8003caa:	685a      	ldr	r2, [r3, #4]
 8003cac:	68fb      	ldr	r3, [r7, #12]
 8003cae:	6c1b      	ldr	r3, [r3, #64]	; 0x40
 8003cb0:	f1c3 0300 	rsb	r3, r3, #0
 8003cb4:	18d2      	adds	r2, r2, r3
 8003cb6:	68fb      	ldr	r3, [r7, #12]
 8003cb8:	60da      	str	r2, [r3, #12]
 8003cba:	687b      	ldr	r3, [r7, #4]
 8003cbc:	2b02      	cmp	r3, #2
 8003cbe:	d109      	bne.n	8003cd4 <prvCopyDataToQueue+0xc8>
 8003cc0:	68fb      	ldr	r3, [r7, #12]
 8003cc2:	6b9b      	ldr	r3, [r3, #56]	; 0x38
 8003cc4:	2b00      	cmp	r3, #0
 8003cc6:	d005      	beq.n	8003cd4 <prvCopyDataToQueue+0xc8>
 8003cc8:	68fb      	ldr	r3, [r7, #12]
 8003cca:	6b9b      	ldr	r3, [r3, #56]	; 0x38
 8003ccc:	f103 32ff 	add.w	r2, r3, #4294967295
 8003cd0:	68fb      	ldr	r3, [r7, #12]
 8003cd2:	639a      	str	r2, [r3, #56]	; 0x38
 8003cd4:	68fb      	ldr	r3, [r7, #12]
 8003cd6:	6b9b      	ldr	r3, [r3, #56]	; 0x38
 8003cd8:	f103 0201 	add.w	r2, r3, #1
 8003cdc:	68fb      	ldr	r3, [r7, #12]
 8003cde:	639a      	str	r2, [r3, #56]	; 0x38
 8003ce0:	f107 0710 	add.w	r7, r7, #16
 8003ce4:	46bd      	mov	sp, r7
 8003ce6:	bd80      	pop	{r7, pc}

08003ce8 <prvCopyDataFromQueue>:
 8003ce8:	b580      	push	{r7, lr}
 8003cea:	b082      	sub	sp, #8
 8003cec:	af00      	add	r7, sp, #0
 8003cee:	6078      	str	r0, [r7, #4]
 8003cf0:	6039      	str	r1, [r7, #0]
 8003cf2:	687b      	ldr	r3, [r7, #4]
 8003cf4:	681b      	ldr	r3, [r3, #0]
 8003cf6:	2b00      	cmp	r3, #0
 8003cf8:	d019      	beq.n	8003d2e <prvCopyDataFromQueue+0x46>
 8003cfa:	687b      	ldr	r3, [r7, #4]
 8003cfc:	68da      	ldr	r2, [r3, #12]
 8003cfe:	687b      	ldr	r3, [r7, #4]
 8003d00:	6c1b      	ldr	r3, [r3, #64]	; 0x40
 8003d02:	18d2      	adds	r2, r2, r3
 8003d04:	687b      	ldr	r3, [r7, #4]
 8003d06:	60da      	str	r2, [r3, #12]
 8003d08:	687b      	ldr	r3, [r7, #4]
 8003d0a:	68da      	ldr	r2, [r3, #12]
 8003d0c:	687b      	ldr	r3, [r7, #4]
 8003d0e:	685b      	ldr	r3, [r3, #4]
 8003d10:	429a      	cmp	r2, r3
 8003d12:	d303      	bcc.n	8003d1c <prvCopyDataFromQueue+0x34>
 8003d14:	687b      	ldr	r3, [r7, #4]
 8003d16:	681a      	ldr	r2, [r3, #0]
 8003d18:	687b      	ldr	r3, [r7, #4]
 8003d1a:	60da      	str	r2, [r3, #12]
 8003d1c:	687b      	ldr	r3, [r7, #4]
 8003d1e:	68da      	ldr	r2, [r3, #12]
 8003d20:	687b      	ldr	r3, [r7, #4]
 8003d22:	6c1b      	ldr	r3, [r3, #64]	; 0x40
 8003d24:	6838      	ldr	r0, [r7, #0]
 8003d26:	4611      	mov	r1, r2
 8003d28:	461a      	mov	r2, r3
 8003d2a:	f001 f82e 	bl	8004d8a <memcpy>
 8003d2e:	f107 0708 	add.w	r7, r7, #8
 8003d32:	46bd      	mov	sp, r7
 8003d34:	bd80      	pop	{r7, pc}
 8003d36:	bf00      	nop

08003d38 <prvUnlockQueue>:
 8003d38:	b580      	push	{r7, lr}
 8003d3a:	b082      	sub	sp, #8
 8003d3c:	af00      	add	r7, sp, #0
 8003d3e:	6078      	str	r0, [r7, #4]
 8003d40:	f000 fb9e 	bl	8004480 <vPortEnterCritical>
 8003d44:	e014      	b.n	8003d70 <prvUnlockQueue+0x38>
 8003d46:	687b      	ldr	r3, [r7, #4]
 8003d48:	6a5b      	ldr	r3, [r3, #36]	; 0x24
 8003d4a:	2b00      	cmp	r3, #0
 8003d4c:	d015      	beq.n	8003d7a <prvUnlockQueue+0x42>
 8003d4e:	687b      	ldr	r3, [r7, #4]
 8003d50:	f103 0324 	add.w	r3, r3, #36	; 0x24
 8003d54:	4618      	mov	r0, r3
 8003d56:	f7ff f8e1 	bl	8002f1c <xTaskRemoveFromEventList>
 8003d5a:	4603      	mov	r3, r0
 8003d5c:	2b00      	cmp	r3, #0
 8003d5e:	d001      	beq.n	8003d64 <prvUnlockQueue+0x2c>
 8003d60:	f7ff f9be 	bl	80030e0 <vTaskMissedYield>
 8003d64:	687b      	ldr	r3, [r7, #4]
 8003d66:	6c9b      	ldr	r3, [r3, #72]	; 0x48
 8003d68:	f103 32ff 	add.w	r2, r3, #4294967295
 8003d6c:	687b      	ldr	r3, [r7, #4]
 8003d6e:	649a      	str	r2, [r3, #72]	; 0x48
 8003d70:	687b      	ldr	r3, [r7, #4]
 8003d72:	6c9b      	ldr	r3, [r3, #72]	; 0x48
 8003d74:	2b00      	cmp	r3, #0
 8003d76:	dce6      	bgt.n	8003d46 <prvUnlockQueue+0xe>
 8003d78:	e000      	b.n	8003d7c <prvUnlockQueue+0x44>
 8003d7a:	bf00      	nop
 8003d7c:	687b      	ldr	r3, [r7, #4]
 8003d7e:	f04f 32ff 	mov.w	r2, #4294967295
 8003d82:	649a      	str	r2, [r3, #72]	; 0x48
 8003d84:	f000 fb92 	bl	80044ac <vPortExitCritical>
 8003d88:	f000 fb7a 	bl	8004480 <vPortEnterCritical>
 8003d8c:	e014      	b.n	8003db8 <prvUnlockQueue+0x80>
 8003d8e:	687b      	ldr	r3, [r7, #4]
 8003d90:	691b      	ldr	r3, [r3, #16]
 8003d92:	2b00      	cmp	r3, #0
 8003d94:	d015      	beq.n	8003dc2 <prvUnlockQueue+0x8a>
 8003d96:	687b      	ldr	r3, [r7, #4]
 8003d98:	f103 0310 	add.w	r3, r3, #16
 8003d9c:	4618      	mov	r0, r3
 8003d9e:	f7ff f8bd 	bl	8002f1c <xTaskRemoveFromEventList>
 8003da2:	4603      	mov	r3, r0
 8003da4:	2b00      	cmp	r3, #0
 8003da6:	d001      	beq.n	8003dac <prvUnlockQueue+0x74>
 8003da8:	f7ff f99a 	bl	80030e0 <vTaskMissedYield>
 8003dac:	687b      	ldr	r3, [r7, #4]
 8003dae:	6c5b      	ldr	r3, [r3, #68]	; 0x44
 8003db0:	f103 32ff 	add.w	r2, r3, #4294967295
 8003db4:	687b      	ldr	r3, [r7, #4]
 8003db6:	645a      	str	r2, [r3, #68]	; 0x44
 8003db8:	687b      	ldr	r3, [r7, #4]
 8003dba:	6c5b      	ldr	r3, [r3, #68]	; 0x44
 8003dbc:	2b00      	cmp	r3, #0
 8003dbe:	dce6      	bgt.n	8003d8e <prvUnlockQueue+0x56>
 8003dc0:	e000      	b.n	8003dc4 <prvUnlockQueue+0x8c>
 8003dc2:	bf00      	nop
 8003dc4:	687b      	ldr	r3, [r7, #4]
 8003dc6:	f04f 32ff 	mov.w	r2, #4294967295
 8003dca:	645a      	str	r2, [r3, #68]	; 0x44
 8003dcc:	f000 fb6e 	bl	80044ac <vPortExitCritical>
 8003dd0:	f107 0708 	add.w	r7, r7, #8
 8003dd4:	46bd      	mov	sp, r7
 8003dd6:	bd80      	pop	{r7, pc}

08003dd8 <prvIsQueueEmpty>:
 8003dd8:	b580      	push	{r7, lr}
 8003dda:	b084      	sub	sp, #16
 8003ddc:	af00      	add	r7, sp, #0
 8003dde:	6078      	str	r0, [r7, #4]
 8003de0:	f000 fb4e 	bl	8004480 <vPortEnterCritical>
 8003de4:	687b      	ldr	r3, [r7, #4]
 8003de6:	6b9b      	ldr	r3, [r3, #56]	; 0x38
 8003de8:	2b00      	cmp	r3, #0
 8003dea:	d103      	bne.n	8003df4 <prvIsQueueEmpty+0x1c>
 8003dec:	f04f 0301 	mov.w	r3, #1
 8003df0:	60fb      	str	r3, [r7, #12]
 8003df2:	e002      	b.n	8003dfa <prvIsQueueEmpty+0x22>
 8003df4:	f04f 0300 	mov.w	r3, #0
 8003df8:	60fb      	str	r3, [r7, #12]
 8003dfa:	f000 fb57 	bl	80044ac <vPortExitCritical>
 8003dfe:	68fb      	ldr	r3, [r7, #12]
 8003e00:	4618      	mov	r0, r3
 8003e02:	f107 0710 	add.w	r7, r7, #16
 8003e06:	46bd      	mov	sp, r7
 8003e08:	bd80      	pop	{r7, pc}
 8003e0a:	bf00      	nop

08003e0c <prvIsQueueFull>:
 8003e0c:	b580      	push	{r7, lr}
 8003e0e:	b084      	sub	sp, #16
 8003e10:	af00      	add	r7, sp, #0
 8003e12:	6078      	str	r0, [r7, #4]
 8003e14:	f000 fb34 	bl	8004480 <vPortEnterCritical>
 8003e18:	687b      	ldr	r3, [r7, #4]
 8003e1a:	6b9a      	ldr	r2, [r3, #56]	; 0x38
 8003e1c:	687b      	ldr	r3, [r7, #4]
 8003e1e:	6bdb      	ldr	r3, [r3, #60]	; 0x3c
 8003e20:	429a      	cmp	r2, r3
 8003e22:	d103      	bne.n	8003e2c <prvIsQueueFull+0x20>
 8003e24:	f04f 0301 	mov.w	r3, #1
 8003e28:	60fb      	str	r3, [r7, #12]
 8003e2a:	e002      	b.n	8003e32 <prvIsQueueFull+0x26>
 8003e2c:	f04f 0300 	mov.w	r3, #0
 8003e30:	60fb      	str	r3, [r7, #12]
 8003e32:	f000 fb3b 	bl	80044ac <vPortExitCritical>
 8003e36:	68fb      	ldr	r3, [r7, #12]
 8003e38:	4618      	mov	r0, r3
 8003e3a:	f107 0710 	add.w	r7, r7, #16
 8003e3e:	46bd      	mov	sp, r7
 8003e40:	bd80      	pop	{r7, pc}
 8003e42:	bf00      	nop

08003e44 <vQueueWaitForMessageRestricted>:
 8003e44:	b580      	push	{r7, lr}
 8003e46:	b084      	sub	sp, #16
 8003e48:	af00      	add	r7, sp, #0
 8003e4a:	6078      	str	r0, [r7, #4]
 8003e4c:	6039      	str	r1, [r7, #0]
 8003e4e:	687b      	ldr	r3, [r7, #4]
 8003e50:	60fb      	str	r3, [r7, #12]
 8003e52:	f000 fb15 	bl	8004480 <vPortEnterCritical>
 8003e56:	68fb      	ldr	r3, [r7, #12]
 8003e58:	6c5b      	ldr	r3, [r3, #68]	; 0x44
 8003e5a:	f1b3 3fff 	cmp.w	r3, #4294967295
 8003e5e:	d103      	bne.n	8003e68 <vQueueWaitForMessageRestricted+0x24>
 8003e60:	68fb      	ldr	r3, [r7, #12]
 8003e62:	f04f 0200 	mov.w	r2, #0
 8003e66:	645a      	str	r2, [r3, #68]	; 0x44
 8003e68:	68fb      	ldr	r3, [r7, #12]
 8003e6a:	6c9b      	ldr	r3, [r3, #72]	; 0x48
 8003e6c:	f1b3 3fff 	cmp.w	r3, #4294967295
 8003e70:	d103      	bne.n	8003e7a <vQueueWaitForMessageRestricted+0x36>
 8003e72:	68fb      	ldr	r3, [r7, #12]
 8003e74:	f04f 0200 	mov.w	r2, #0
 8003e78:	649a      	str	r2, [r3, #72]	; 0x48
 8003e7a:	f000 fb17 	bl	80044ac <vPortExitCritical>
 8003e7e:	68fb      	ldr	r3, [r7, #12]
 8003e80:	6b9b      	ldr	r3, [r3, #56]	; 0x38
 8003e82:	2b00      	cmp	r3, #0
 8003e84:	d106      	bne.n	8003e94 <vQueueWaitForMessageRestricted+0x50>
 8003e86:	68fb      	ldr	r3, [r7, #12]
 8003e88:	f103 0324 	add.w	r3, r3, #36	; 0x24
 8003e8c:	4618      	mov	r0, r3
 8003e8e:	6839      	ldr	r1, [r7, #0]
 8003e90:	f7ff f814 	bl	8002ebc <vTaskPlaceOnEventListRestricted>
 8003e94:	68f8      	ldr	r0, [r7, #12]
 8003e96:	f7ff ff4f 	bl	8003d38 <prvUnlockQueue>
 8003e9a:	f107 0710 	add.w	r7, r7, #16
 8003e9e:	46bd      	mov	sp, r7
 8003ea0:	bd80      	pop	{r7, pc}
 8003ea2:	bf00      	nop

08003ea4 <pvPortMalloc>:
 8003ea4:	b580      	push	{r7, lr}
 8003ea6:	b086      	sub	sp, #24
 8003ea8:	af00      	add	r7, sp, #0
 8003eaa:	6078      	str	r0, [r7, #4]
 8003eac:	f04f 0300 	mov.w	r3, #0
 8003eb0:	60fb      	str	r3, [r7, #12]
 8003eb2:	f7fe fd0b 	bl	80028cc <vTaskSuspendAll>
 8003eb6:	f243 6370 	movw	r3, #13936	; 0x3670
 8003eba:	f2c2 0301 	movt	r3, #8193	; 0x2001
 8003ebe:	681b      	ldr	r3, [r3, #0]
 8003ec0:	2b00      	cmp	r3, #0
 8003ec2:	d101      	bne.n	8003ec8 <pvPortMalloc+0x24>
 8003ec4:	f000 f8fc 	bl	80040c0 <prvHeapInit>
 8003ec8:	f243 6374 	movw	r3, #13940	; 0x3674
 8003ecc:	f2c2 0301 	movt	r3, #8193	; 0x2001
 8003ed0:	681a      	ldr	r2, [r3, #0]
 8003ed2:	687b      	ldr	r3, [r7, #4]
 8003ed4:	4013      	ands	r3, r2
 8003ed6:	2b00      	cmp	r3, #0
 8003ed8:	f040 8088 	bne.w	8003fec <pvPortMalloc+0x148>
 8003edc:	687b      	ldr	r3, [r7, #4]
 8003ede:	2b00      	cmp	r3, #0
 8003ee0:	d012      	beq.n	8003f08 <pvPortMalloc+0x64>
 8003ee2:	f245 0320 	movw	r3, #20512	; 0x5020
 8003ee6:	f6c0 0300 	movt	r3, #2048	; 0x800
 8003eea:	881b      	ldrh	r3, [r3, #0]
 8003eec:	687a      	ldr	r2, [r7, #4]
 8003eee:	18d3      	adds	r3, r2, r3
 8003ef0:	607b      	str	r3, [r7, #4]
 8003ef2:	687b      	ldr	r3, [r7, #4]
 8003ef4:	f003 0307 	and.w	r3, r3, #7
 8003ef8:	2b00      	cmp	r3, #0
 8003efa:	d005      	beq.n	8003f08 <pvPortMalloc+0x64>
 8003efc:	687b      	ldr	r3, [r7, #4]
 8003efe:	f023 0307 	bic.w	r3, r3, #7
 8003f02:	f103 0308 	add.w	r3, r3, #8
 8003f06:	607b      	str	r3, [r7, #4]
 8003f08:	687b      	ldr	r3, [r7, #4]
 8003f0a:	2b00      	cmp	r3, #0
 8003f0c:	d06e      	beq.n	8003fec <pvPortMalloc+0x148>
 8003f0e:	f640 130c 	movw	r3, #2316	; 0x90c
 8003f12:	f2c2 0300 	movt	r3, #8192	; 0x2000
 8003f16:	681b      	ldr	r3, [r3, #0]
 8003f18:	687a      	ldr	r2, [r7, #4]
 8003f1a:	429a      	cmp	r2, r3
 8003f1c:	d866      	bhi.n	8003fec <pvPortMalloc+0x148>
 8003f1e:	f243 6368 	movw	r3, #13928	; 0x3668
 8003f22:	f2c2 0301 	movt	r3, #8193	; 0x2001
 8003f26:	613b      	str	r3, [r7, #16]
 8003f28:	f243 6368 	movw	r3, #13928	; 0x3668
 8003f2c:	f2c2 0301 	movt	r3, #8193	; 0x2001
 8003f30:	681b      	ldr	r3, [r3, #0]
 8003f32:	617b      	str	r3, [r7, #20]
 8003f34:	e004      	b.n	8003f40 <pvPortMalloc+0x9c>
 8003f36:	697b      	ldr	r3, [r7, #20]
 8003f38:	613b      	str	r3, [r7, #16]
 8003f3a:	697b      	ldr	r3, [r7, #20]
 8003f3c:	681b      	ldr	r3, [r3, #0]
 8003f3e:	617b      	str	r3, [r7, #20]
 8003f40:	697b      	ldr	r3, [r7, #20]
 8003f42:	685a      	ldr	r2, [r3, #4]
 8003f44:	687b      	ldr	r3, [r7, #4]
 8003f46:	429a      	cmp	r2, r3
 8003f48:	d203      	bcs.n	8003f52 <pvPortMalloc+0xae>
 8003f4a:	697b      	ldr	r3, [r7, #20]
 8003f4c:	681b      	ldr	r3, [r3, #0]
 8003f4e:	2b00      	cmp	r3, #0
 8003f50:	d1f1      	bne.n	8003f36 <pvPortMalloc+0x92>
 8003f52:	f243 6370 	movw	r3, #13936	; 0x3670
 8003f56:	f2c2 0301 	movt	r3, #8193	; 0x2001
 8003f5a:	681b      	ldr	r3, [r3, #0]
 8003f5c:	697a      	ldr	r2, [r7, #20]
 8003f5e:	429a      	cmp	r2, r3
 8003f60:	d044      	beq.n	8003fec <pvPortMalloc+0x148>
 8003f62:	693b      	ldr	r3, [r7, #16]
 8003f64:	681a      	ldr	r2, [r3, #0]
 8003f66:	f245 0320 	movw	r3, #20512	; 0x5020
 8003f6a:	f6c0 0300 	movt	r3, #2048	; 0x800
 8003f6e:	881b      	ldrh	r3, [r3, #0]
 8003f70:	18d3      	adds	r3, r2, r3
 8003f72:	60fb      	str	r3, [r7, #12]
 8003f74:	697b      	ldr	r3, [r7, #20]
 8003f76:	681a      	ldr	r2, [r3, #0]
 8003f78:	693b      	ldr	r3, [r7, #16]
 8003f7a:	601a      	str	r2, [r3, #0]
 8003f7c:	697b      	ldr	r3, [r7, #20]
 8003f7e:	685a      	ldr	r2, [r3, #4]
 8003f80:	687b      	ldr	r3, [r7, #4]
 8003f82:	1ad2      	subs	r2, r2, r3
 8003f84:	f245 0320 	movw	r3, #20512	; 0x5020
 8003f88:	f6c0 0300 	movt	r3, #2048	; 0x800
 8003f8c:	881b      	ldrh	r3, [r3, #0]
 8003f8e:	ea4f 0343 	mov.w	r3, r3, lsl #1
 8003f92:	429a      	cmp	r2, r3
 8003f94:	d90f      	bls.n	8003fb6 <pvPortMalloc+0x112>
 8003f96:	697a      	ldr	r2, [r7, #20]
 8003f98:	687b      	ldr	r3, [r7, #4]
 8003f9a:	18d3      	adds	r3, r2, r3
 8003f9c:	60bb      	str	r3, [r7, #8]
 8003f9e:	697b      	ldr	r3, [r7, #20]
 8003fa0:	685a      	ldr	r2, [r3, #4]
 8003fa2:	687b      	ldr	r3, [r7, #4]
 8003fa4:	1ad2      	subs	r2, r2, r3
 8003fa6:	68bb      	ldr	r3, [r7, #8]
 8003fa8:	605a      	str	r2, [r3, #4]
 8003faa:	697b      	ldr	r3, [r7, #20]
 8003fac:	687a      	ldr	r2, [r7, #4]
 8003fae:	605a      	str	r2, [r3, #4]
 8003fb0:	68b8      	ldr	r0, [r7, #8]
 8003fb2:	f000 f901 	bl	80041b8 <prvInsertBlockIntoFreeList>
 8003fb6:	f640 130c 	movw	r3, #2316	; 0x90c
 8003fba:	f2c2 0300 	movt	r3, #8192	; 0x2000
 8003fbe:	681a      	ldr	r2, [r3, #0]
 8003fc0:	697b      	ldr	r3, [r7, #20]
 8003fc2:	685b      	ldr	r3, [r3, #4]
 8003fc4:	1ad2      	subs	r2, r2, r3
 8003fc6:	f640 130c 	movw	r3, #2316	; 0x90c
 8003fca:	f2c2 0300 	movt	r3, #8192	; 0x2000
 8003fce:	601a      	str	r2, [r3, #0]
 8003fd0:	697b      	ldr	r3, [r7, #20]
 8003fd2:	685a      	ldr	r2, [r3, #4]
 8003fd4:	f243 6374 	movw	r3, #13940	; 0x3674
 8003fd8:	f2c2 0301 	movt	r3, #8193	; 0x2001
 8003fdc:	681b      	ldr	r3, [r3, #0]
 8003fde:	431a      	orrs	r2, r3
 8003fe0:	697b      	ldr	r3, [r7, #20]
 8003fe2:	605a      	str	r2, [r3, #4]
 8003fe4:	697b      	ldr	r3, [r7, #20]
 8003fe6:	f04f 0200 	mov.w	r2, #0
 8003fea:	601a      	str	r2, [r3, #0]
 8003fec:	f7fe fc80 	bl	80028f0 <xTaskResumeAll>
 8003ff0:	68fb      	ldr	r3, [r7, #12]
 8003ff2:	2b00      	cmp	r3, #0
 8003ff4:	d101      	bne.n	8003ffa <pvPortMalloc+0x156>
 8003ff6:	f7fc f943 	bl	8000280 <ADC_IRQHandler>
 8003ffa:	68fb      	ldr	r3, [r7, #12]
 8003ffc:	4618      	mov	r0, r3
 8003ffe:	f107 0718 	add.w	r7, r7, #24
 8004002:	46bd      	mov	sp, r7
 8004004:	bd80      	pop	{r7, pc}
 8004006:	bf00      	nop

08004008 <vPortFree>:
 8004008:	b580      	push	{r7, lr}
 800400a:	b084      	sub	sp, #16
 800400c:	af00      	add	r7, sp, #0
 800400e:	6078      	str	r0, [r7, #4]
 8004010:	687b      	ldr	r3, [r7, #4]
 8004012:	60fb      	str	r3, [r7, #12]
 8004014:	687b      	ldr	r3, [r7, #4]
 8004016:	2b00      	cmp	r3, #0
 8004018:	d04d      	beq.n	80040b6 <vPortFree+0xae>
 800401a:	f245 0320 	movw	r3, #20512	; 0x5020
 800401e:	f6c0 0300 	movt	r3, #2048	; 0x800
 8004022:	881b      	ldrh	r3, [r3, #0]
 8004024:	f1c3 0300 	rsb	r3, r3, #0
 8004028:	68fa      	ldr	r2, [r7, #12]
 800402a:	18d3      	adds	r3, r2, r3
 800402c:	60fb      	str	r3, [r7, #12]
 800402e:	68fb      	ldr	r3, [r7, #12]
 8004030:	60bb      	str	r3, [r7, #8]
 8004032:	68bb      	ldr	r3, [r7, #8]
 8004034:	685a      	ldr	r2, [r3, #4]
 8004036:	f243 6374 	movw	r3, #13940	; 0x3674
 800403a:	f2c2 0301 	movt	r3, #8193	; 0x2001
 800403e:	681b      	ldr	r3, [r3, #0]
 8004040:	4013      	ands	r3, r2
 8004042:	2b00      	cmp	r3, #0
 8004044:	d102      	bne.n	800404c <vPortFree+0x44>
 8004046:	f000 fa4b 	bl	80044e0 <ulPortSetInterruptMask>
 800404a:	e7fe      	b.n	800404a <vPortFree+0x42>
 800404c:	68bb      	ldr	r3, [r7, #8]
 800404e:	681b      	ldr	r3, [r3, #0]
 8004050:	2b00      	cmp	r3, #0
 8004052:	d002      	beq.n	800405a <vPortFree+0x52>
 8004054:	f000 fa44 	bl	80044e0 <ulPortSetInterruptMask>
 8004058:	e7fe      	b.n	8004058 <vPortFree+0x50>
 800405a:	68bb      	ldr	r3, [r7, #8]
 800405c:	685a      	ldr	r2, [r3, #4]
 800405e:	f243 6374 	movw	r3, #13940	; 0x3674
 8004062:	f2c2 0301 	movt	r3, #8193	; 0x2001
 8004066:	681b      	ldr	r3, [r3, #0]
 8004068:	4013      	ands	r3, r2
 800406a:	2b00      	cmp	r3, #0
 800406c:	d023      	beq.n	80040b6 <vPortFree+0xae>
 800406e:	68bb      	ldr	r3, [r7, #8]
 8004070:	681b      	ldr	r3, [r3, #0]
 8004072:	2b00      	cmp	r3, #0
 8004074:	d11f      	bne.n	80040b6 <vPortFree+0xae>
 8004076:	68bb      	ldr	r3, [r7, #8]
 8004078:	685a      	ldr	r2, [r3, #4]
 800407a:	f243 6374 	movw	r3, #13940	; 0x3674
 800407e:	f2c2 0301 	movt	r3, #8193	; 0x2001
 8004082:	681b      	ldr	r3, [r3, #0]
 8004084:	ea6f 0303 	mvn.w	r3, r3
 8004088:	401a      	ands	r2, r3
 800408a:	68bb      	ldr	r3, [r7, #8]
 800408c:	605a      	str	r2, [r3, #4]
 800408e:	f7fe fc1d 	bl	80028cc <vTaskSuspendAll>
 8004092:	68bb      	ldr	r3, [r7, #8]
 8004094:	685a      	ldr	r2, [r3, #4]
 8004096:	f640 130c 	movw	r3, #2316	; 0x90c
 800409a:	f2c2 0300 	movt	r3, #8192	; 0x2000
 800409e:	681b      	ldr	r3, [r3, #0]
 80040a0:	18d2      	adds	r2, r2, r3
 80040a2:	f640 130c 	movw	r3, #2316	; 0x90c
 80040a6:	f2c2 0300 	movt	r3, #8192	; 0x2000
 80040aa:	601a      	str	r2, [r3, #0]
 80040ac:	68b8      	ldr	r0, [r7, #8]
 80040ae:	f000 f883 	bl	80041b8 <prvInsertBlockIntoFreeList>
 80040b2:	f7fe fc1d 	bl	80028f0 <xTaskResumeAll>
 80040b6:	f107 0710 	add.w	r7, r7, #16
 80040ba:	46bd      	mov	sp, r7
 80040bc:	bd80      	pop	{r7, pc}
 80040be:	bf00      	nop

080040c0 <prvHeapInit>:
 80040c0:	b580      	push	{r7, lr}
 80040c2:	b084      	sub	sp, #16
 80040c4:	af00      	add	r7, sp, #0
 80040c6:	4b3b      	ldr	r3, [pc, #236]	; (80041b4 <prvHeapInit+0xf4>)
 80040c8:	f023 0307 	bic.w	r3, r3, #7
 80040cc:	60fb      	str	r3, [r7, #12]
 80040ce:	f243 6368 	movw	r3, #13928	; 0x3668
 80040d2:	f2c2 0301 	movt	r3, #8193	; 0x2001
 80040d6:	68fa      	ldr	r2, [r7, #12]
 80040d8:	601a      	str	r2, [r3, #0]
 80040da:	f243 6368 	movw	r3, #13928	; 0x3668
 80040de:	f2c2 0301 	movt	r3, #8193	; 0x2001
 80040e2:	f04f 0200 	mov.w	r2, #0
 80040e6:	605a      	str	r2, [r3, #4]
 80040e8:	f245 0324 	movw	r3, #20516	; 0x5024
 80040ec:	f6c0 0300 	movt	r3, #2048	; 0x800
 80040f0:	681b      	ldr	r3, [r3, #0]
 80040f2:	68fa      	ldr	r2, [r7, #12]
 80040f4:	18d3      	adds	r3, r2, r3
 80040f6:	60bb      	str	r3, [r7, #8]
 80040f8:	f245 0320 	movw	r3, #20512	; 0x5020
 80040fc:	f6c0 0300 	movt	r3, #2048	; 0x800
 8004100:	881b      	ldrh	r3, [r3, #0]
 8004102:	f1c3 0300 	rsb	r3, r3, #0
 8004106:	68ba      	ldr	r2, [r7, #8]
 8004108:	18d3      	adds	r3, r2, r3
 800410a:	60bb      	str	r3, [r7, #8]
 800410c:	f243 6370 	movw	r3, #13936	; 0x3670
 8004110:	f2c2 0301 	movt	r3, #8193	; 0x2001
 8004114:	68ba      	ldr	r2, [r7, #8]
 8004116:	601a      	str	r2, [r3, #0]
 8004118:	f243 6370 	movw	r3, #13936	; 0x3670
 800411c:	f2c2 0301 	movt	r3, #8193	; 0x2001
 8004120:	681b      	ldr	r3, [r3, #0]
 8004122:	f003 0307 	and.w	r3, r3, #7
 8004126:	2b00      	cmp	r3, #0
 8004128:	d002      	beq.n	8004130 <prvHeapInit+0x70>
 800412a:	f000 f9d9 	bl	80044e0 <ulPortSetInterruptMask>
 800412e:	e7fe      	b.n	800412e <prvHeapInit+0x6e>
 8004130:	f243 6370 	movw	r3, #13936	; 0x3670
 8004134:	f2c2 0301 	movt	r3, #8193	; 0x2001
 8004138:	681b      	ldr	r3, [r3, #0]
 800413a:	f04f 0200 	mov.w	r2, #0
 800413e:	605a      	str	r2, [r3, #4]
 8004140:	f243 6370 	movw	r3, #13936	; 0x3670
 8004144:	f2c2 0301 	movt	r3, #8193	; 0x2001
 8004148:	681b      	ldr	r3, [r3, #0]
 800414a:	f04f 0200 	mov.w	r2, #0
 800414e:	601a      	str	r2, [r3, #0]
 8004150:	68fb      	ldr	r3, [r7, #12]
 8004152:	607b      	str	r3, [r7, #4]
 8004154:	f245 0324 	movw	r3, #20516	; 0x5024
 8004158:	f6c0 0300 	movt	r3, #2048	; 0x800
 800415c:	681a      	ldr	r2, [r3, #0]
 800415e:	f245 0320 	movw	r3, #20512	; 0x5020
 8004162:	f6c0 0300 	movt	r3, #2048	; 0x800
 8004166:	881b      	ldrh	r3, [r3, #0]
 8004168:	1ad2      	subs	r2, r2, r3
 800416a:	687b      	ldr	r3, [r7, #4]
 800416c:	605a      	str	r2, [r3, #4]
 800416e:	f243 6370 	movw	r3, #13936	; 0x3670
 8004172:	f2c2 0301 	movt	r3, #8193	; 0x2001
 8004176:	681a      	ldr	r2, [r3, #0]
 8004178:	687b      	ldr	r3, [r7, #4]
 800417a:	601a      	str	r2, [r3, #0]
 800417c:	f640 130c 	movw	r3, #2316	; 0x90c
 8004180:	f2c2 0300 	movt	r3, #8192	; 0x2000
 8004184:	681a      	ldr	r2, [r3, #0]
 8004186:	f245 0320 	movw	r3, #20512	; 0x5020
 800418a:	f6c0 0300 	movt	r3, #2048	; 0x800
 800418e:	881b      	ldrh	r3, [r3, #0]
 8004190:	1ad2      	subs	r2, r2, r3
 8004192:	f640 130c 	movw	r3, #2316	; 0x90c
 8004196:	f2c2 0300 	movt	r3, #8192	; 0x2000
 800419a:	601a      	str	r2, [r3, #0]
 800419c:	f243 6374 	movw	r3, #13940	; 0x3674
 80041a0:	f2c2 0301 	movt	r3, #8193	; 0x2001
 80041a4:	f04f 4200 	mov.w	r2, #2147483648	; 0x80000000
 80041a8:	601a      	str	r2, [r3, #0]
 80041aa:	f107 0710 	add.w	r7, r7, #16
 80041ae:	46bd      	mov	sp, r7
 80041b0:	bd80      	pop	{r7, pc}
 80041b2:	bf00      	nop
 80041b4:	20000a70 	.word	0x20000a70

080041b8 <prvInsertBlockIntoFreeList>:
 80041b8:	b480      	push	{r7}
 80041ba:	b085      	sub	sp, #20
 80041bc:	af00      	add	r7, sp, #0
 80041be:	6078      	str	r0, [r7, #4]
 80041c0:	f243 6368 	movw	r3, #13928	; 0x3668
 80041c4:	f2c2 0301 	movt	r3, #8193	; 0x2001
 80041c8:	60fb      	str	r3, [r7, #12]
 80041ca:	e002      	b.n	80041d2 <prvInsertBlockIntoFreeList+0x1a>
 80041cc:	68fb      	ldr	r3, [r7, #12]
 80041ce:	681b      	ldr	r3, [r3, #0]
 80041d0:	60fb      	str	r3, [r7, #12]
 80041d2:	68fb      	ldr	r3, [r7, #12]
 80041d4:	681a      	ldr	r2, [r3, #0]
 80041d6:	687b      	ldr	r3, [r7, #4]
 80041d8:	429a      	cmp	r2, r3
 80041da:	d3f7      	bcc.n	80041cc <prvInsertBlockIntoFreeList+0x14>
 80041dc:	68fb      	ldr	r3, [r7, #12]
 80041de:	60bb      	str	r3, [r7, #8]
 80041e0:	68fb      	ldr	r3, [r7, #12]
 80041e2:	685b      	ldr	r3, [r3, #4]
 80041e4:	68ba      	ldr	r2, [r7, #8]
 80041e6:	18d2      	adds	r2, r2, r3
 80041e8:	687b      	ldr	r3, [r7, #4]
 80041ea:	429a      	cmp	r2, r3
 80041ec:	d108      	bne.n	8004200 <prvInsertBlockIntoFreeList+0x48>
 80041ee:	68fb      	ldr	r3, [r7, #12]
 80041f0:	685a      	ldr	r2, [r3, #4]
 80041f2:	687b      	ldr	r3, [r7, #4]
 80041f4:	685b      	ldr	r3, [r3, #4]
 80041f6:	18d2      	adds	r2, r2, r3
 80041f8:	68fb      	ldr	r3, [r7, #12]
 80041fa:	605a      	str	r2, [r3, #4]
 80041fc:	68fb      	ldr	r3, [r7, #12]
 80041fe:	607b      	str	r3, [r7, #4]
 8004200:	687b      	ldr	r3, [r7, #4]
 8004202:	60bb      	str	r3, [r7, #8]
 8004204:	687b      	ldr	r3, [r7, #4]
 8004206:	685b      	ldr	r3, [r3, #4]
 8004208:	68ba      	ldr	r2, [r7, #8]
 800420a:	18d2      	adds	r2, r2, r3
 800420c:	68fb      	ldr	r3, [r7, #12]
 800420e:	681b      	ldr	r3, [r3, #0]
 8004210:	429a      	cmp	r2, r3
 8004212:	d11e      	bne.n	8004252 <prvInsertBlockIntoFreeList+0x9a>
 8004214:	68fb      	ldr	r3, [r7, #12]
 8004216:	681a      	ldr	r2, [r3, #0]
 8004218:	f243 6370 	movw	r3, #13936	; 0x3670
 800421c:	f2c2 0301 	movt	r3, #8193	; 0x2001
 8004220:	681b      	ldr	r3, [r3, #0]
 8004222:	429a      	cmp	r2, r3
 8004224:	d00d      	beq.n	8004242 <prvInsertBlockIntoFreeList+0x8a>
 8004226:	687b      	ldr	r3, [r7, #4]
 8004228:	685a      	ldr	r2, [r3, #4]
 800422a:	68fb      	ldr	r3, [r7, #12]
 800422c:	681b      	ldr	r3, [r3, #0]
 800422e:	685b      	ldr	r3, [r3, #4]
 8004230:	18d2      	adds	r2, r2, r3
 8004232:	687b      	ldr	r3, [r7, #4]
 8004234:	605a      	str	r2, [r3, #4]
 8004236:	68fb      	ldr	r3, [r7, #12]
 8004238:	681b      	ldr	r3, [r3, #0]
 800423a:	681a      	ldr	r2, [r3, #0]
 800423c:	687b      	ldr	r3, [r7, #4]
 800423e:	601a      	str	r2, [r3, #0]
 8004240:	e00b      	b.n	800425a <prvInsertBlockIntoFreeList+0xa2>
 8004242:	f243 6370 	movw	r3, #13936	; 0x3670
 8004246:	f2c2 0301 	movt	r3, #8193	; 0x2001
 800424a:	681a      	ldr	r2, [r3, #0]
 800424c:	687b      	ldr	r3, [r7, #4]
 800424e:	601a      	str	r2, [r3, #0]
 8004250:	e003      	b.n	800425a <prvInsertBlockIntoFreeList+0xa2>
 8004252:	68fb      	ldr	r3, [r7, #12]
 8004254:	681a      	ldr	r2, [r3, #0]
 8004256:	687b      	ldr	r3, [r7, #4]
 8004258:	601a      	str	r2, [r3, #0]
 800425a:	68fa      	ldr	r2, [r7, #12]
 800425c:	687b      	ldr	r3, [r7, #4]
 800425e:	429a      	cmp	r2, r3
 8004260:	d002      	beq.n	8004268 <prvInsertBlockIntoFreeList+0xb0>
 8004262:	68fb      	ldr	r3, [r7, #12]
 8004264:	687a      	ldr	r2, [r7, #4]
 8004266:	601a      	str	r2, [r3, #0]
 8004268:	f107 0714 	add.w	r7, r7, #20
 800426c:	46bd      	mov	sp, r7
 800426e:	bc80      	pop	{r7}
 8004270:	4770      	bx	lr
 8004272:	bf00      	nop

08004274 <pxPortInitialiseStack>:
 8004274:	b480      	push	{r7}
 8004276:	b085      	sub	sp, #20
 8004278:	af00      	add	r7, sp, #0
 800427a:	60f8      	str	r0, [r7, #12]
 800427c:	60b9      	str	r1, [r7, #8]
 800427e:	607a      	str	r2, [r7, #4]
 8004280:	68fb      	ldr	r3, [r7, #12]
 8004282:	f1a3 0304 	sub.w	r3, r3, #4
 8004286:	60fb      	str	r3, [r7, #12]
 8004288:	68fb      	ldr	r3, [r7, #12]
 800428a:	f04f 7280 	mov.w	r2, #16777216	; 0x1000000
 800428e:	601a      	str	r2, [r3, #0]
 8004290:	68fb      	ldr	r3, [r7, #12]
 8004292:	f1a3 0304 	sub.w	r3, r3, #4
 8004296:	60fb      	str	r3, [r7, #12]
 8004298:	68ba      	ldr	r2, [r7, #8]
 800429a:	68fb      	ldr	r3, [r7, #12]
 800429c:	601a      	str	r2, [r3, #0]
 800429e:	68fb      	ldr	r3, [r7, #12]
 80042a0:	f1a3 0304 	sub.w	r3, r3, #4
 80042a4:	60fb      	str	r3, [r7, #12]
 80042a6:	f244 23e9 	movw	r3, #17129	; 0x42e9
 80042aa:	f6c0 0300 	movt	r3, #2048	; 0x800
 80042ae:	68fa      	ldr	r2, [r7, #12]
 80042b0:	6013      	str	r3, [r2, #0]
 80042b2:	68fb      	ldr	r3, [r7, #12]
 80042b4:	f1a3 0314 	sub.w	r3, r3, #20
 80042b8:	60fb      	str	r3, [r7, #12]
 80042ba:	687a      	ldr	r2, [r7, #4]
 80042bc:	68fb      	ldr	r3, [r7, #12]
 80042be:	601a      	str	r2, [r3, #0]
 80042c0:	68fb      	ldr	r3, [r7, #12]
 80042c2:	f1a3 0304 	sub.w	r3, r3, #4
 80042c6:	60fb      	str	r3, [r7, #12]
 80042c8:	68fb      	ldr	r3, [r7, #12]
 80042ca:	f06f 0202 	mvn.w	r2, #2
 80042ce:	601a      	str	r2, [r3, #0]
 80042d0:	68fb      	ldr	r3, [r7, #12]
 80042d2:	f1a3 0320 	sub.w	r3, r3, #32
 80042d6:	60fb      	str	r3, [r7, #12]
 80042d8:	68fb      	ldr	r3, [r7, #12]
 80042da:	4618      	mov	r0, r3
 80042dc:	f107 0714 	add.w	r7, r7, #20
 80042e0:	46bd      	mov	sp, r7
 80042e2:	bc80      	pop	{r7}
 80042e4:	4770      	bx	lr
 80042e6:	bf00      	nop

080042e8 <prvTaskExitError>:
 80042e8:	b580      	push	{r7, lr}
 80042ea:	af00      	add	r7, sp, #0
 80042ec:	f640 1310 	movw	r3, #2320	; 0x910
 80042f0:	f2c2 0300 	movt	r3, #8192	; 0x2000
 80042f4:	681b      	ldr	r3, [r3, #0]
 80042f6:	f1b3 3fff 	cmp.w	r3, #4294967295
 80042fa:	d002      	beq.n	8004302 <prvTaskExitError+0x1a>
 80042fc:	f000 f8f0 	bl	80044e0 <ulPortSetInterruptMask>
 8004300:	e7fe      	b.n	8004300 <prvTaskExitError+0x18>
 8004302:	f000 f8ed 	bl	80044e0 <ulPortSetInterruptMask>
 8004306:	e7fe      	b.n	8004306 <prvTaskExitError+0x1e>

08004308 <SVC_Handler>:
 8004308:	4b05      	ldr	r3, [pc, #20]	; (8004320 <pxCurrentTCBConst2>)
 800430a:	6819      	ldr	r1, [r3, #0]
 800430c:	6808      	ldr	r0, [r1, #0]
 800430e:	e8b0 4ff0 	ldmia.w	r0!, {r4, r5, r6, r7, r8, r9, sl, fp, lr}
 8004312:	f380 8809 	msr	PSP, r0
 8004316:	f04f 0000 	mov.w	r0, #0
 800431a:	f380 8811 	msr	BASEPRI, r0
 800431e:	4770      	bx	lr

08004320 <pxCurrentTCBConst2>:
 8004320:	2000096c 	.word	0x2000096c

08004324 <prvPortStartFirstTask>:
 8004324:	4803      	ldr	r0, [pc, #12]	; (8004334 <prvPortStartFirstTask+0x10>)
 8004326:	6800      	ldr	r0, [r0, #0]
 8004328:	6800      	ldr	r0, [r0, #0]
 800432a:	f380 8808 	msr	MSP, r0
 800432e:	b662      	cpsie	i
 8004330:	df00      	svc	0
 8004332:	bf00      	nop
 8004334:	e000ed08 	.word	0xe000ed08

08004338 <xPortStartScheduler>:
 8004338:	b580      	push	{r7, lr}
 800433a:	b084      	sub	sp, #16
 800433c:	af00      	add	r7, sp, #0
 800433e:	f44f 4364 	mov.w	r3, #58368	; 0xe400
 8004342:	f2ce 0300 	movt	r3, #57344	; 0xe000
 8004346:	60fb      	str	r3, [r7, #12]
 8004348:	68fb      	ldr	r3, [r7, #12]
 800434a:	781b      	ldrb	r3, [r3, #0]
 800434c:	b2db      	uxtb	r3, r3
 800434e:	60bb      	str	r3, [r7, #8]
 8004350:	68fb      	ldr	r3, [r7, #12]
 8004352:	f04f 02ff 	mov.w	r2, #255	; 0xff
 8004356:	701a      	strb	r2, [r3, #0]
 8004358:	68fb      	ldr	r3, [r7, #12]
 800435a:	781b      	ldrb	r3, [r3, #0]
 800435c:	b2db      	uxtb	r3, r3
 800435e:	71fb      	strb	r3, [r7, #7]
 8004360:	79fb      	ldrb	r3, [r7, #7]
 8004362:	b2db      	uxtb	r3, r3
 8004364:	f003 0350 	and.w	r3, r3, #80	; 0x50
 8004368:	b2da      	uxtb	r2, r3
 800436a:	f243 6378 	movw	r3, #13944	; 0x3678
 800436e:	f2c2 0301 	movt	r3, #8193	; 0x2001
 8004372:	701a      	strb	r2, [r3, #0]
 8004374:	f243 637c 	movw	r3, #13948	; 0x367c
 8004378:	f2c2 0301 	movt	r3, #8193	; 0x2001
 800437c:	f04f 0207 	mov.w	r2, #7
 8004380:	601a      	str	r2, [r3, #0]
 8004382:	e011      	b.n	80043a8 <xPortStartScheduler+0x70>
 8004384:	f243 637c 	movw	r3, #13948	; 0x367c
 8004388:	f2c2 0301 	movt	r3, #8193	; 0x2001
 800438c:	681b      	ldr	r3, [r3, #0]
 800438e:	f103 32ff 	add.w	r2, r3, #4294967295
 8004392:	f243 637c 	movw	r3, #13948	; 0x367c
 8004396:	f2c2 0301 	movt	r3, #8193	; 0x2001
 800439a:	601a      	str	r2, [r3, #0]
 800439c:	79fb      	ldrb	r3, [r7, #7]
 800439e:	b2db      	uxtb	r3, r3
 80043a0:	ea4f 0343 	mov.w	r3, r3, lsl #1
 80043a4:	b2db      	uxtb	r3, r3
 80043a6:	71fb      	strb	r3, [r7, #7]
 80043a8:	79fb      	ldrb	r3, [r7, #7]
 80043aa:	b2db      	uxtb	r3, r3
 80043ac:	b2db      	uxtb	r3, r3
 80043ae:	b25b      	sxtb	r3, r3
 80043b0:	2b00      	cmp	r3, #0
 80043b2:	dbe7      	blt.n	8004384 <xPortStartScheduler+0x4c>
 80043b4:	f243 637c 	movw	r3, #13948	; 0x367c
 80043b8:	f2c2 0301 	movt	r3, #8193	; 0x2001
 80043bc:	681b      	ldr	r3, [r3, #0]
 80043be:	ea4f 2203 	mov.w	r2, r3, lsl #8
 80043c2:	f243 637c 	movw	r3, #13948	; 0x367c
 80043c6:	f2c2 0301 	movt	r3, #8193	; 0x2001
 80043ca:	601a      	str	r2, [r3, #0]
 80043cc:	f243 637c 	movw	r3, #13948	; 0x367c
 80043d0:	f2c2 0301 	movt	r3, #8193	; 0x2001
 80043d4:	681b      	ldr	r3, [r3, #0]
 80043d6:	f403 62e0 	and.w	r2, r3, #1792	; 0x700
 80043da:	f243 637c 	movw	r3, #13948	; 0x367c
 80043de:	f2c2 0301 	movt	r3, #8193	; 0x2001
 80043e2:	601a      	str	r2, [r3, #0]
 80043e4:	68bb      	ldr	r3, [r7, #8]
 80043e6:	b2da      	uxtb	r2, r3
 80043e8:	68fb      	ldr	r3, [r7, #12]
 80043ea:	701a      	strb	r2, [r3, #0]
 80043ec:	f64e 5320 	movw	r3, #60704	; 0xed20
 80043f0:	f2ce 0300 	movt	r3, #57344	; 0xe000
 80043f4:	f64e 5220 	movw	r2, #60704	; 0xed20
 80043f8:	f2ce 0200 	movt	r2, #57344	; 0xe000
 80043fc:	6812      	ldr	r2, [r2, #0]
 80043fe:	f442 0270 	orr.w	r2, r2, #15728640	; 0xf00000
 8004402:	601a      	str	r2, [r3, #0]
 8004404:	f64e 5320 	movw	r3, #60704	; 0xed20
 8004408:	f2ce 0300 	movt	r3, #57344	; 0xe000
 800440c:	f64e 5220 	movw	r2, #60704	; 0xed20
 8004410:	f2ce 0200 	movt	r2, #57344	; 0xe000
 8004414:	6812      	ldr	r2, [r2, #0]
 8004416:	f042 4270 	orr.w	r2, r2, #4026531840	; 0xf0000000
 800441a:	601a      	str	r2, [r3, #0]
 800441c:	f000 f8ac 	bl	8004578 <vPortSetupTimerInterrupt>
 8004420:	f640 1310 	movw	r3, #2320	; 0x910
 8004424:	f2c2 0300 	movt	r3, #8192	; 0x2000
 8004428:	f04f 0200 	mov.w	r2, #0
 800442c:	601a      	str	r2, [r3, #0]
 800442e:	f000 f8c3 	bl	80045b8 <vPortEnableVFP>
 8004432:	f64e 7334 	movw	r3, #61236	; 0xef34
 8004436:	f2ce 0300 	movt	r3, #57344	; 0xe000
 800443a:	f64e 7234 	movw	r2, #61236	; 0xef34
 800443e:	f2ce 0200 	movt	r2, #57344	; 0xe000
 8004442:	6812      	ldr	r2, [r2, #0]
 8004444:	f042 4240 	orr.w	r2, r2, #3221225472	; 0xc0000000
 8004448:	601a      	str	r2, [r3, #0]
 800444a:	f7ff ff6b 	bl	8004324 <prvPortStartFirstTask>
 800444e:	f7ff ff4b 	bl	80042e8 <prvTaskExitError>
 8004452:	f04f 0300 	mov.w	r3, #0
 8004456:	4618      	mov	r0, r3
 8004458:	f107 0710 	add.w	r7, r7, #16
 800445c:	46bd      	mov	sp, r7
 800445e:	bd80      	pop	{r7, pc}

08004460 <vPortYield>:
 8004460:	b480      	push	{r7}
 8004462:	af00      	add	r7, sp, #0
 8004464:	f64e 5304 	movw	r3, #60676	; 0xed04
 8004468:	f2ce 0300 	movt	r3, #57344	; 0xe000
 800446c:	f04f 5280 	mov.w	r2, #268435456	; 0x10000000
 8004470:	601a      	str	r2, [r3, #0]
 8004472:	f3bf 8f4f 	dsb	sy
 8004476:	f3bf 8f6f 	isb	sy
 800447a:	46bd      	mov	sp, r7
 800447c:	bc80      	pop	{r7}
 800447e:	4770      	bx	lr

08004480 <vPortEnterCritical>:
 8004480:	b580      	push	{r7, lr}
 8004482:	af00      	add	r7, sp, #0
 8004484:	f000 f82c 	bl	80044e0 <ulPortSetInterruptMask>
 8004488:	f640 1310 	movw	r3, #2320	; 0x910
 800448c:	f2c2 0300 	movt	r3, #8192	; 0x2000
 8004490:	681b      	ldr	r3, [r3, #0]
 8004492:	f103 0201 	add.w	r2, r3, #1
 8004496:	f640 1310 	movw	r3, #2320	; 0x910
 800449a:	f2c2 0300 	movt	r3, #8192	; 0x2000
 800449e:	601a      	str	r2, [r3, #0]
 80044a0:	f3bf 8f4f 	dsb	sy
 80044a4:	f3bf 8f6f 	isb	sy
 80044a8:	bd80      	pop	{r7, pc}
 80044aa:	bf00      	nop

080044ac <vPortExitCritical>:
 80044ac:	b580      	push	{r7, lr}
 80044ae:	af00      	add	r7, sp, #0
 80044b0:	f640 1310 	movw	r3, #2320	; 0x910
 80044b4:	f2c2 0300 	movt	r3, #8192	; 0x2000
 80044b8:	681b      	ldr	r3, [r3, #0]
 80044ba:	f103 32ff 	add.w	r2, r3, #4294967295
 80044be:	f640 1310 	movw	r3, #2320	; 0x910
 80044c2:	f2c2 0300 	movt	r3, #8192	; 0x2000
 80044c6:	601a      	str	r2, [r3, #0]
 80044c8:	f640 1310 	movw	r3, #2320	; 0x910
 80044cc:	f2c2 0300 	movt	r3, #8192	; 0x2000
 80044d0:	681b      	ldr	r3, [r3, #0]
 80044d2:	2b00      	cmp	r3, #0
 80044d4:	d103      	bne.n	80044de <vPortExitCritical+0x32>
 80044d6:	f04f 0000 	mov.w	r0, #0
 80044da:	f000 f80b 	bl	80044f4 <vPortClearInterruptMask>
 80044de:	bd80      	pop	{r7, pc}

080044e0 <ulPortSetInterruptMask>:
 80044e0:	f3ef 8011 	mrs	r0, BASEPRI
 80044e4:	f04f 0150 	mov.w	r1, #80	; 0x50
 80044e8:	f381 8811 	msr	BASEPRI, r1
 80044ec:	4770      	bx	lr
 80044ee:	f04f 0300 	mov.w	r3, #0
 80044f2:	4618      	mov	r0, r3

080044f4 <vPortClearInterruptMask>:
 80044f4:	f380 8811 	msr	BASEPRI, r0
 80044f8:	4770      	bx	lr
 80044fa:	bf00      	nop

080044fc <PendSV_Handler>:
 80044fc:	f3ef 8009 	mrs	r0, PSP
 8004500:	4b11      	ldr	r3, [pc, #68]	; (8004548 <pxCurrentTCBConst>)
 8004502:	681a      	ldr	r2, [r3, #0]
 8004504:	f01e 0f10 	tst.w	lr, #16
 8004508:	bf08      	it	eq
 800450a:	ed20 8a10 	vstmdbeq	r0!, {s16-s31}
 800450e:	e920 4ff0 	stmdb	r0!, {r4, r5, r6, r7, r8, r9, sl, fp, lr}
 8004512:	6010      	str	r0, [r2, #0]
 8004514:	f84d 3d04 	str.w	r3, [sp, #-4]!
 8004518:	f04f 0050 	mov.w	r0, #80	; 0x50
 800451c:	f380 8811 	msr	BASEPRI, r0
 8004520:	f7fe fbd8 	bl	8002cd4 <vTaskSwitchContext>
 8004524:	f04f 0000 	mov.w	r0, #0
 8004528:	f380 8811 	msr	BASEPRI, r0
 800452c:	bc08      	pop	{r3}
 800452e:	6819      	ldr	r1, [r3, #0]
 8004530:	6808      	ldr	r0, [r1, #0]
 8004532:	e8b0 4ff0 	ldmia.w	r0!, {r4, r5, r6, r7, r8, r9, sl, fp, lr}
 8004536:	f01e 0f10 	tst.w	lr, #16
 800453a:	bf08      	it	eq
 800453c:	ecb0 8a10 	vldmiaeq	r0!, {s16-s31}
 8004540:	f380 8809 	msr	PSP, r0
 8004544:	4770      	bx	lr
 8004546:	bf00      	nop

08004548 <pxCurrentTCBConst>:
 8004548:	2000096c 	.word	0x2000096c

0800454c <SysTick_Handler>:
 800454c:	b580      	push	{r7, lr}
 800454e:	af00      	add	r7, sp, #0
 8004550:	f7ff ffc6 	bl	80044e0 <ulPortSetInterruptMask>
 8004554:	f7fe fa9a 	bl	8002a8c <xTaskIncrementTick>
 8004558:	4603      	mov	r3, r0
 800455a:	2b00      	cmp	r3, #0
 800455c:	d006      	beq.n	800456c <SysTick_Handler+0x20>
 800455e:	f64e 5304 	movw	r3, #60676	; 0xed04
 8004562:	f2ce 0300 	movt	r3, #57344	; 0xe000
 8004566:	f04f 5280 	mov.w	r2, #268435456	; 0x10000000
 800456a:	601a      	str	r2, [r3, #0]
 800456c:	f04f 0000 	mov.w	r0, #0
 8004570:	f7ff ffc0 	bl	80044f4 <vPortClearInterruptMask>
 8004574:	bd80      	pop	{r7, pc}
 8004576:	bf00      	nop

08004578 <vPortSetupTimerInterrupt>:
 8004578:	b480      	push	{r7}
 800457a:	af00      	add	r7, sp, #0
 800457c:	f24e 0314 	movw	r3, #57364	; 0xe014
 8004580:	f2ce 0300 	movt	r3, #57344	; 0xe000
 8004584:	f240 0268 	movw	r2, #104	; 0x68
 8004588:	f2c2 0200 	movt	r2, #8192	; 0x2000
 800458c:	6811      	ldr	r1, [r2, #0]
 800458e:	f644 52d3 	movw	r2, #19923	; 0x4dd3
 8004592:	f2c1 0262 	movt	r2, #4194	; 0x1062
 8004596:	fba2 0201 	umull	r0, r2, r2, r1
 800459a:	ea4f 1292 	mov.w	r2, r2, lsr #6
 800459e:	f102 32ff 	add.w	r2, r2, #4294967295
 80045a2:	601a      	str	r2, [r3, #0]
 80045a4:	f24e 0310 	movw	r3, #57360	; 0xe010
 80045a8:	f2ce 0300 	movt	r3, #57344	; 0xe000
 80045ac:	f04f 0207 	mov.w	r2, #7
 80045b0:	601a      	str	r2, [r3, #0]
 80045b2:	46bd      	mov	sp, r7
 80045b4:	bc80      	pop	{r7}
 80045b6:	4770      	bx	lr

080045b8 <vPortEnableVFP>:
 80045b8:	f8df 000c 	ldr.w	r0, [pc, #12]	; 80045c8 <vPortEnableVFP+0x10>
 80045bc:	6801      	ldr	r1, [r0, #0]
 80045be:	f441 0170 	orr.w	r1, r1, #15728640	; 0xf00000
 80045c2:	6001      	str	r1, [r0, #0]
 80045c4:	4770      	bx	lr
 80045c6:	0000      	.short	0x0000
 80045c8:	e000ed88 	.word	0xe000ed88

080045cc <vPortValidateInterruptPriority>:
 80045cc:	b590      	push	{r4, r7, lr}
 80045ce:	b083      	sub	sp, #12
 80045d0:	af00      	add	r7, sp, #0
 80045d2:	f3ef 8405 	mrs	r4, IPSR
 80045d6:	607c      	str	r4, [r7, #4]
 80045d8:	687b      	ldr	r3, [r7, #4]
 80045da:	2b0f      	cmp	r3, #15
 80045dc:	d913      	bls.n	8004606 <vPortValidateInterruptPriority+0x3a>
 80045de:	f245 0328 	movw	r3, #20520	; 0x5028
 80045e2:	f6c0 0300 	movt	r3, #2048	; 0x800
 80045e6:	681a      	ldr	r2, [r3, #0]
 80045e8:	687b      	ldr	r3, [r7, #4]
 80045ea:	18d3      	adds	r3, r2, r3
 80045ec:	781b      	ldrb	r3, [r3, #0]
 80045ee:	70fb      	strb	r3, [r7, #3]
 80045f0:	f243 6378 	movw	r3, #13944	; 0x3678
 80045f4:	f2c2 0301 	movt	r3, #8193	; 0x2001
 80045f8:	781b      	ldrb	r3, [r3, #0]
 80045fa:	78fa      	ldrb	r2, [r7, #3]
 80045fc:	429a      	cmp	r2, r3
 80045fe:	d202      	bcs.n	8004606 <vPortValidateInterruptPriority+0x3a>
 8004600:	f7ff ff6e 	bl	80044e0 <ulPortSetInterruptMask>
 8004604:	e7fe      	b.n	8004604 <vPortValidateInterruptPriority+0x38>
 8004606:	f64e 530c 	movw	r3, #60684	; 0xed0c
 800460a:	f2ce 0300 	movt	r3, #57344	; 0xe000
 800460e:	681b      	ldr	r3, [r3, #0]
 8004610:	f403 62e0 	and.w	r2, r3, #1792	; 0x700
 8004614:	f243 637c 	movw	r3, #13948	; 0x367c
 8004618:	f2c2 0301 	movt	r3, #8193	; 0x2001
 800461c:	681b      	ldr	r3, [r3, #0]
 800461e:	429a      	cmp	r2, r3
 8004620:	d902      	bls.n	8004628 <vPortValidateInterruptPriority+0x5c>
 8004622:	f7ff ff5d 	bl	80044e0 <ulPortSetInterruptMask>
 8004626:	e7fe      	b.n	8004626 <vPortValidateInterruptPriority+0x5a>
 8004628:	f107 070c 	add.w	r7, r7, #12
 800462c:	46bd      	mov	sp, r7
 800462e:	bd90      	pop	{r4, r7, pc}

08004630 <vListInitialise>:
 8004630:	b480      	push	{r7}
 8004632:	b083      	sub	sp, #12
 8004634:	af00      	add	r7, sp, #0
 8004636:	6078      	str	r0, [r7, #4]
 8004638:	687b      	ldr	r3, [r7, #4]
 800463a:	f103 0208 	add.w	r2, r3, #8
 800463e:	687b      	ldr	r3, [r7, #4]
 8004640:	605a      	str	r2, [r3, #4]
 8004642:	687b      	ldr	r3, [r7, #4]
 8004644:	f04f 32ff 	mov.w	r2, #4294967295
 8004648:	609a      	str	r2, [r3, #8]
 800464a:	687b      	ldr	r3, [r7, #4]
 800464c:	f103 0208 	add.w	r2, r3, #8
 8004650:	687b      	ldr	r3, [r7, #4]
 8004652:	60da      	str	r2, [r3, #12]
 8004654:	687b      	ldr	r3, [r7, #4]
 8004656:	f103 0208 	add.w	r2, r3, #8
 800465a:	687b      	ldr	r3, [r7, #4]
 800465c:	611a      	str	r2, [r3, #16]
 800465e:	687b      	ldr	r3, [r7, #4]
 8004660:	f04f 0200 	mov.w	r2, #0
 8004664:	601a      	str	r2, [r3, #0]
 8004666:	f107 070c 	add.w	r7, r7, #12
 800466a:	46bd      	mov	sp, r7
 800466c:	bc80      	pop	{r7}
 800466e:	4770      	bx	lr

08004670 <vListInitialiseItem>:
 8004670:	b480      	push	{r7}
 8004672:	b083      	sub	sp, #12
 8004674:	af00      	add	r7, sp, #0
 8004676:	6078      	str	r0, [r7, #4]
 8004678:	687b      	ldr	r3, [r7, #4]
 800467a:	f04f 0200 	mov.w	r2, #0
 800467e:	611a      	str	r2, [r3, #16]
 8004680:	f107 070c 	add.w	r7, r7, #12
 8004684:	46bd      	mov	sp, r7
 8004686:	bc80      	pop	{r7}
 8004688:	4770      	bx	lr
 800468a:	bf00      	nop

0800468c <vListInsertEnd>:
 800468c:	b480      	push	{r7}
 800468e:	b085      	sub	sp, #20
 8004690:	af00      	add	r7, sp, #0
 8004692:	6078      	str	r0, [r7, #4]
 8004694:	6039      	str	r1, [r7, #0]
 8004696:	687b      	ldr	r3, [r7, #4]
 8004698:	685b      	ldr	r3, [r3, #4]
 800469a:	60fb      	str	r3, [r7, #12]
 800469c:	683b      	ldr	r3, [r7, #0]
 800469e:	68fa      	ldr	r2, [r7, #12]
 80046a0:	605a      	str	r2, [r3, #4]
 80046a2:	68fb      	ldr	r3, [r7, #12]
 80046a4:	689a      	ldr	r2, [r3, #8]
 80046a6:	683b      	ldr	r3, [r7, #0]
 80046a8:	609a      	str	r2, [r3, #8]
 80046aa:	68fb      	ldr	r3, [r7, #12]
 80046ac:	689b      	ldr	r3, [r3, #8]
 80046ae:	683a      	ldr	r2, [r7, #0]
 80046b0:	605a      	str	r2, [r3, #4]
 80046b2:	68fb      	ldr	r3, [r7, #12]
 80046b4:	683a      	ldr	r2, [r7, #0]
 80046b6:	609a      	str	r2, [r3, #8]
 80046b8:	683b      	ldr	r3, [r7, #0]
 80046ba:	687a      	ldr	r2, [r7, #4]
 80046bc:	611a      	str	r2, [r3, #16]
 80046be:	687b      	ldr	r3, [r7, #4]
 80046c0:	681b      	ldr	r3, [r3, #0]
 80046c2:	f103 0201 	add.w	r2, r3, #1
 80046c6:	687b      	ldr	r3, [r7, #4]
 80046c8:	601a      	str	r2, [r3, #0]
 80046ca:	f107 0714 	add.w	r7, r7, #20
 80046ce:	46bd      	mov	sp, r7
 80046d0:	bc80      	pop	{r7}
 80046d2:	4770      	bx	lr

080046d4 <vListInsert>:
 80046d4:	b480      	push	{r7}
 80046d6:	b085      	sub	sp, #20
 80046d8:	af00      	add	r7, sp, #0
 80046da:	6078      	str	r0, [r7, #4]
 80046dc:	6039      	str	r1, [r7, #0]
 80046de:	683b      	ldr	r3, [r7, #0]
 80046e0:	681b      	ldr	r3, [r3, #0]
 80046e2:	60bb      	str	r3, [r7, #8]
 80046e4:	68bb      	ldr	r3, [r7, #8]
 80046e6:	f1b3 3fff 	cmp.w	r3, #4294967295
 80046ea:	d103      	bne.n	80046f4 <vListInsert+0x20>
 80046ec:	687b      	ldr	r3, [r7, #4]
 80046ee:	691b      	ldr	r3, [r3, #16]
 80046f0:	60fb      	str	r3, [r7, #12]
 80046f2:	e00d      	b.n	8004710 <vListInsert+0x3c>
 80046f4:	687b      	ldr	r3, [r7, #4]
 80046f6:	f103 0308 	add.w	r3, r3, #8
 80046fa:	60fb      	str	r3, [r7, #12]
 80046fc:	e002      	b.n	8004704 <vListInsert+0x30>
 80046fe:	68fb      	ldr	r3, [r7, #12]
 8004700:	685b      	ldr	r3, [r3, #4]
 8004702:	60fb      	str	r3, [r7, #12]
 8004704:	68fb      	ldr	r3, [r7, #12]
 8004706:	685b      	ldr	r3, [r3, #4]
 8004708:	681a      	ldr	r2, [r3, #0]
 800470a:	68bb      	ldr	r3, [r7, #8]
 800470c:	429a      	cmp	r2, r3
 800470e:	d9f6      	bls.n	80046fe <vListInsert+0x2a>
 8004710:	68fb      	ldr	r3, [r7, #12]
 8004712:	685a      	ldr	r2, [r3, #4]
 8004714:	683b      	ldr	r3, [r7, #0]
 8004716:	605a      	str	r2, [r3, #4]
 8004718:	683b      	ldr	r3, [r7, #0]
 800471a:	685b      	ldr	r3, [r3, #4]
 800471c:	683a      	ldr	r2, [r7, #0]
 800471e:	609a      	str	r2, [r3, #8]
 8004720:	683b      	ldr	r3, [r7, #0]
 8004722:	68fa      	ldr	r2, [r7, #12]
 8004724:	609a      	str	r2, [r3, #8]
 8004726:	68fb      	ldr	r3, [r7, #12]
 8004728:	683a      	ldr	r2, [r7, #0]
 800472a:	605a      	str	r2, [r3, #4]
 800472c:	683b      	ldr	r3, [r7, #0]
 800472e:	687a      	ldr	r2, [r7, #4]
 8004730:	611a      	str	r2, [r3, #16]
 8004732:	687b      	ldr	r3, [r7, #4]
 8004734:	681b      	ldr	r3, [r3, #0]
 8004736:	f103 0201 	add.w	r2, r3, #1
 800473a:	687b      	ldr	r3, [r7, #4]
 800473c:	601a      	str	r2, [r3, #0]
 800473e:	f107 0714 	add.w	r7, r7, #20
 8004742:	46bd      	mov	sp, r7
 8004744:	bc80      	pop	{r7}
 8004746:	4770      	bx	lr

08004748 <uxListRemove>:
 8004748:	b480      	push	{r7}
 800474a:	b085      	sub	sp, #20
 800474c:	af00      	add	r7, sp, #0
 800474e:	6078      	str	r0, [r7, #4]
 8004750:	687b      	ldr	r3, [r7, #4]
 8004752:	685b      	ldr	r3, [r3, #4]
 8004754:	687a      	ldr	r2, [r7, #4]
 8004756:	6892      	ldr	r2, [r2, #8]
 8004758:	609a      	str	r2, [r3, #8]
 800475a:	687b      	ldr	r3, [r7, #4]
 800475c:	689b      	ldr	r3, [r3, #8]
 800475e:	687a      	ldr	r2, [r7, #4]
 8004760:	6852      	ldr	r2, [r2, #4]
 8004762:	605a      	str	r2, [r3, #4]
 8004764:	687b      	ldr	r3, [r7, #4]
 8004766:	691b      	ldr	r3, [r3, #16]
 8004768:	60fb      	str	r3, [r7, #12]
 800476a:	68fb      	ldr	r3, [r7, #12]
 800476c:	685a      	ldr	r2, [r3, #4]
 800476e:	687b      	ldr	r3, [r7, #4]
 8004770:	429a      	cmp	r2, r3
 8004772:	d103      	bne.n	800477c <uxListRemove+0x34>
 8004774:	687b      	ldr	r3, [r7, #4]
 8004776:	689a      	ldr	r2, [r3, #8]
 8004778:	68fb      	ldr	r3, [r7, #12]
 800477a:	605a      	str	r2, [r3, #4]
 800477c:	687b      	ldr	r3, [r7, #4]
 800477e:	f04f 0200 	mov.w	r2, #0
 8004782:	611a      	str	r2, [r3, #16]
 8004784:	68fb      	ldr	r3, [r7, #12]
 8004786:	681b      	ldr	r3, [r3, #0]
 8004788:	f103 32ff 	add.w	r2, r3, #4294967295
 800478c:	68fb      	ldr	r3, [r7, #12]
 800478e:	601a      	str	r2, [r3, #0]
 8004790:	68fb      	ldr	r3, [r7, #12]
 8004792:	681b      	ldr	r3, [r3, #0]
 8004794:	4618      	mov	r0, r3
 8004796:	f107 0714 	add.w	r7, r7, #20
 800479a:	46bd      	mov	sp, r7
 800479c:	bc80      	pop	{r7}
 800479e:	4770      	bx	lr

080047a0 <xTimerCreateTimerTask>:
 80047a0:	b580      	push	{r7, lr}
 80047a2:	b086      	sub	sp, #24
 80047a4:	af04      	add	r7, sp, #16
 80047a6:	f04f 0300 	mov.w	r3, #0
 80047aa:	607b      	str	r3, [r7, #4]
 80047ac:	f000 faa4 	bl	8004cf8 <prvCheckForValidListAndQueue>
 80047b0:	f243 63b0 	movw	r3, #14000	; 0x36b0
 80047b4:	f2c2 0301 	movt	r3, #8193	; 0x2001
 80047b8:	681b      	ldr	r3, [r3, #0]
 80047ba:	2b00      	cmp	r3, #0
 80047bc:	d01a      	beq.n	80047f4 <xTimerCreateTimerTask+0x54>
 80047be:	f04f 0302 	mov.w	r3, #2
 80047c2:	9300      	str	r3, [sp, #0]
 80047c4:	f04f 0300 	mov.w	r3, #0
 80047c8:	9301      	str	r3, [sp, #4]
 80047ca:	f04f 0300 	mov.w	r3, #0
 80047ce:	9302      	str	r3, [sp, #8]
 80047d0:	f04f 0300 	mov.w	r3, #0
 80047d4:	9303      	str	r3, [sp, #12]
 80047d6:	f644 1035 	movw	r0, #18741	; 0x4935
 80047da:	f6c0 0000 	movt	r0, #2048	; 0x800
 80047de:	f245 0100 	movw	r1, #20480	; 0x5000
 80047e2:	f6c0 0100 	movt	r1, #2048	; 0x800
 80047e6:	f44f 7282 	mov.w	r2, #260	; 0x104
 80047ea:	f04f 0300 	mov.w	r3, #0
 80047ee:	f7fd ff1b 	bl	8002628 <xTaskGenericCreate>
 80047f2:	6078      	str	r0, [r7, #4]
 80047f4:	687b      	ldr	r3, [r7, #4]
 80047f6:	2b00      	cmp	r3, #0
 80047f8:	d102      	bne.n	8004800 <xTimerCreateTimerTask+0x60>
 80047fa:	f7ff fe71 	bl	80044e0 <ulPortSetInterruptMask>
 80047fe:	e7fe      	b.n	80047fe <xTimerCreateTimerTask+0x5e>
 8004800:	687b      	ldr	r3, [r7, #4]
 8004802:	4618      	mov	r0, r3
 8004804:	f107 0708 	add.w	r7, r7, #8
 8004808:	46bd      	mov	sp, r7
 800480a:	bd80      	pop	{r7, pc}

0800480c <xTimerGenericCommand>:
 800480c:	b580      	push	{r7, lr}
 800480e:	b088      	sub	sp, #32
 8004810:	af00      	add	r7, sp, #0
 8004812:	60f8      	str	r0, [r7, #12]
 8004814:	60b9      	str	r1, [r7, #8]
 8004816:	607a      	str	r2, [r7, #4]
 8004818:	603b      	str	r3, [r7, #0]
 800481a:	f04f 0300 	mov.w	r3, #0
 800481e:	61fb      	str	r3, [r7, #28]
 8004820:	f243 63b0 	movw	r3, #14000	; 0x36b0
 8004824:	f2c2 0301 	movt	r3, #8193	; 0x2001
 8004828:	681b      	ldr	r3, [r3, #0]
 800482a:	2b00      	cmp	r3, #0
 800482c:	d03d      	beq.n	80048aa <xTimerGenericCommand+0x9e>
 800482e:	68bb      	ldr	r3, [r7, #8]
 8004830:	613b      	str	r3, [r7, #16]
 8004832:	687b      	ldr	r3, [r7, #4]
 8004834:	617b      	str	r3, [r7, #20]
 8004836:	68fb      	ldr	r3, [r7, #12]
 8004838:	61bb      	str	r3, [r7, #24]
 800483a:	683b      	ldr	r3, [r7, #0]
 800483c:	2b00      	cmp	r3, #0
 800483e:	d125      	bne.n	800488c <xTimerGenericCommand+0x80>
 8004840:	f7fe fdfa 	bl	8003438 <xTaskGetSchedulerState>
 8004844:	4603      	mov	r3, r0
 8004846:	2b01      	cmp	r3, #1
 8004848:	d10f      	bne.n	800486a <xTimerGenericCommand+0x5e>
 800484a:	f243 63b0 	movw	r3, #14000	; 0x36b0
 800484e:	f2c2 0301 	movt	r3, #8193	; 0x2001
 8004852:	681a      	ldr	r2, [r3, #0]
 8004854:	f107 0310 	add.w	r3, r7, #16
 8004858:	4610      	mov	r0, r2
 800485a:	4619      	mov	r1, r3
 800485c:	6aba      	ldr	r2, [r7, #40]	; 0x28
 800485e:	f04f 0300 	mov.w	r3, #0
 8004862:	f7fe ffc7 	bl	80037f4 <xQueueGenericSend>
 8004866:	61f8      	str	r0, [r7, #28]
 8004868:	e01f      	b.n	80048aa <xTimerGenericCommand+0x9e>
 800486a:	f243 63b0 	movw	r3, #14000	; 0x36b0
 800486e:	f2c2 0301 	movt	r3, #8193	; 0x2001
 8004872:	681a      	ldr	r2, [r3, #0]
 8004874:	f107 0310 	add.w	r3, r7, #16
 8004878:	4610      	mov	r0, r2
 800487a:	4619      	mov	r1, r3
 800487c:	f04f 0200 	mov.w	r2, #0
 8004880:	f04f 0300 	mov.w	r3, #0
 8004884:	f7fe ffb6 	bl	80037f4 <xQueueGenericSend>
 8004888:	61f8      	str	r0, [r7, #28]
 800488a:	e00e      	b.n	80048aa <xTimerGenericCommand+0x9e>
 800488c:	f243 63b0 	movw	r3, #14000	; 0x36b0
 8004890:	f2c2 0301 	movt	r3, #8193	; 0x2001
 8004894:	681a      	ldr	r2, [r3, #0]
 8004896:	f107 0310 	add.w	r3, r7, #16
 800489a:	4610      	mov	r0, r2
 800489c:	4619      	mov	r1, r3
 800489e:	683a      	ldr	r2, [r7, #0]
 80048a0:	f04f 0300 	mov.w	r3, #0
 80048a4:	f7ff f862 	bl	800396c <xQueueGenericSendFromISR>
 80048a8:	61f8      	str	r0, [r7, #28]
 80048aa:	69fb      	ldr	r3, [r7, #28]
 80048ac:	4618      	mov	r0, r3
 80048ae:	f107 0720 	add.w	r7, r7, #32
 80048b2:	46bd      	mov	sp, r7
 80048b4:	bd80      	pop	{r7, pc}
 80048b6:	bf00      	nop

080048b8 <prvProcessExpiredTimer>:
 80048b8:	b580      	push	{r7, lr}
 80048ba:	b086      	sub	sp, #24
 80048bc:	af02      	add	r7, sp, #8
 80048be:	6078      	str	r0, [r7, #4]
 80048c0:	6039      	str	r1, [r7, #0]
 80048c2:	f243 63a8 	movw	r3, #13992	; 0x36a8
 80048c6:	f2c2 0301 	movt	r3, #8193	; 0x2001
 80048ca:	681b      	ldr	r3, [r3, #0]
 80048cc:	68db      	ldr	r3, [r3, #12]
 80048ce:	68db      	ldr	r3, [r3, #12]
 80048d0:	60fb      	str	r3, [r7, #12]
 80048d2:	68fb      	ldr	r3, [r7, #12]
 80048d4:	f103 0304 	add.w	r3, r3, #4
 80048d8:	4618      	mov	r0, r3
 80048da:	f7ff ff35 	bl	8004748 <uxListRemove>
 80048de:	68fb      	ldr	r3, [r7, #12]
 80048e0:	69db      	ldr	r3, [r3, #28]
 80048e2:	2b01      	cmp	r3, #1
 80048e4:	d11e      	bne.n	8004924 <prvProcessExpiredTimer+0x6c>
 80048e6:	68fb      	ldr	r3, [r7, #12]
 80048e8:	699a      	ldr	r2, [r3, #24]
 80048ea:	687b      	ldr	r3, [r7, #4]
 80048ec:	18d3      	adds	r3, r2, r3
 80048ee:	68f8      	ldr	r0, [r7, #12]
 80048f0:	4619      	mov	r1, r3
 80048f2:	683a      	ldr	r2, [r7, #0]
 80048f4:	687b      	ldr	r3, [r7, #4]
 80048f6:	f000 f8bf 	bl	8004a78 <prvInsertTimerInActiveList>
 80048fa:	4603      	mov	r3, r0
 80048fc:	2b01      	cmp	r3, #1
 80048fe:	d111      	bne.n	8004924 <prvProcessExpiredTimer+0x6c>
 8004900:	f04f 0300 	mov.w	r3, #0
 8004904:	9300      	str	r3, [sp, #0]
 8004906:	68f8      	ldr	r0, [r7, #12]
 8004908:	f04f 0100 	mov.w	r1, #0
 800490c:	687a      	ldr	r2, [r7, #4]
 800490e:	f04f 0300 	mov.w	r3, #0
 8004912:	f7ff ff7b 	bl	800480c <xTimerGenericCommand>
 8004916:	60b8      	str	r0, [r7, #8]
 8004918:	68bb      	ldr	r3, [r7, #8]
 800491a:	2b00      	cmp	r3, #0
 800491c:	d102      	bne.n	8004924 <prvProcessExpiredTimer+0x6c>
 800491e:	f7ff fddf 	bl	80044e0 <ulPortSetInterruptMask>
 8004922:	e7fe      	b.n	8004922 <prvProcessExpiredTimer+0x6a>
 8004924:	68fb      	ldr	r3, [r7, #12]
 8004926:	6a5b      	ldr	r3, [r3, #36]	; 0x24
 8004928:	68f8      	ldr	r0, [r7, #12]
 800492a:	4798      	blx	r3
 800492c:	f107 0710 	add.w	r7, r7, #16
 8004930:	46bd      	mov	sp, r7
 8004932:	bd80      	pop	{r7, pc}

08004934 <prvTimerTask>:
 8004934:	b580      	push	{r7, lr}
 8004936:	b084      	sub	sp, #16
 8004938:	af00      	add	r7, sp, #0
 800493a:	6078      	str	r0, [r7, #4]
 800493c:	f107 0308 	add.w	r3, r7, #8
 8004940:	4618      	mov	r0, r3
 8004942:	f000 f843 	bl	80049cc <prvGetNextExpireTime>
 8004946:	60f8      	str	r0, [r7, #12]
 8004948:	68bb      	ldr	r3, [r7, #8]
 800494a:	68f8      	ldr	r0, [r7, #12]
 800494c:	4619      	mov	r1, r3
 800494e:	f000 f803 	bl	8004958 <prvProcessTimerOrBlockTask>
 8004952:	f000 f8db 	bl	8004b0c <prvProcessReceivedCommands>
 8004956:	e7f1      	b.n	800493c <prvTimerTask+0x8>

08004958 <prvProcessTimerOrBlockTask>:
 8004958:	b580      	push	{r7, lr}
 800495a:	b084      	sub	sp, #16
 800495c:	af00      	add	r7, sp, #0
 800495e:	6078      	str	r0, [r7, #4]
 8004960:	6039      	str	r1, [r7, #0]
 8004962:	f7fd ffb3 	bl	80028cc <vTaskSuspendAll>
 8004966:	f107 0308 	add.w	r3, r7, #8
 800496a:	4618      	mov	r0, r3
 800496c:	f000 f858 	bl	8004a20 <prvSampleTimeNow>
 8004970:	60f8      	str	r0, [r7, #12]
 8004972:	68bb      	ldr	r3, [r7, #8]
 8004974:	2b00      	cmp	r3, #0
 8004976:	d121      	bne.n	80049bc <prvProcessTimerOrBlockTask+0x64>
 8004978:	683b      	ldr	r3, [r7, #0]
 800497a:	2b00      	cmp	r3, #0
 800497c:	d10a      	bne.n	8004994 <prvProcessTimerOrBlockTask+0x3c>
 800497e:	687a      	ldr	r2, [r7, #4]
 8004980:	68fb      	ldr	r3, [r7, #12]
 8004982:	429a      	cmp	r2, r3
 8004984:	d806      	bhi.n	8004994 <prvProcessTimerOrBlockTask+0x3c>
 8004986:	f7fd ffb3 	bl	80028f0 <xTaskResumeAll>
 800498a:	6878      	ldr	r0, [r7, #4]
 800498c:	68f9      	ldr	r1, [r7, #12]
 800498e:	f7ff ff93 	bl	80048b8 <prvProcessExpiredTimer>
 8004992:	e017      	b.n	80049c4 <prvProcessTimerOrBlockTask+0x6c>
 8004994:	f243 63b0 	movw	r3, #14000	; 0x36b0
 8004998:	f2c2 0301 	movt	r3, #8193	; 0x2001
 800499c:	681a      	ldr	r2, [r3, #0]
 800499e:	6879      	ldr	r1, [r7, #4]
 80049a0:	68fb      	ldr	r3, [r7, #12]
 80049a2:	1acb      	subs	r3, r1, r3
 80049a4:	4610      	mov	r0, r2
 80049a6:	4619      	mov	r1, r3
 80049a8:	f7ff fa4c 	bl	8003e44 <vQueueWaitForMessageRestricted>
 80049ac:	f7fd ffa0 	bl	80028f0 <xTaskResumeAll>
 80049b0:	4603      	mov	r3, r0
 80049b2:	2b00      	cmp	r3, #0
 80049b4:	d105      	bne.n	80049c2 <prvProcessTimerOrBlockTask+0x6a>
 80049b6:	f7ff fd53 	bl	8004460 <vPortYield>
 80049ba:	e002      	b.n	80049c2 <prvProcessTimerOrBlockTask+0x6a>
 80049bc:	f7fd ff98 	bl	80028f0 <xTaskResumeAll>
 80049c0:	e000      	b.n	80049c4 <prvProcessTimerOrBlockTask+0x6c>
 80049c2:	bf00      	nop
 80049c4:	f107 0710 	add.w	r7, r7, #16
 80049c8:	46bd      	mov	sp, r7
 80049ca:	bd80      	pop	{r7, pc}

080049cc <prvGetNextExpireTime>:
 80049cc:	b480      	push	{r7}
 80049ce:	b085      	sub	sp, #20
 80049d0:	af00      	add	r7, sp, #0
 80049d2:	6078      	str	r0, [r7, #4]
 80049d4:	f243 63a8 	movw	r3, #13992	; 0x36a8
 80049d8:	f2c2 0301 	movt	r3, #8193	; 0x2001
 80049dc:	681b      	ldr	r3, [r3, #0]
 80049de:	681b      	ldr	r3, [r3, #0]
 80049e0:	2b00      	cmp	r3, #0
 80049e2:	bf14      	ite	ne
 80049e4:	2300      	movne	r3, #0
 80049e6:	2301      	moveq	r3, #1
 80049e8:	b2db      	uxtb	r3, r3
 80049ea:	461a      	mov	r2, r3
 80049ec:	687b      	ldr	r3, [r7, #4]
 80049ee:	601a      	str	r2, [r3, #0]
 80049f0:	687b      	ldr	r3, [r7, #4]
 80049f2:	681b      	ldr	r3, [r3, #0]
 80049f4:	2b00      	cmp	r3, #0
 80049f6:	d108      	bne.n	8004a0a <prvGetNextExpireTime+0x3e>
 80049f8:	f243 63a8 	movw	r3, #13992	; 0x36a8
 80049fc:	f2c2 0301 	movt	r3, #8193	; 0x2001
 8004a00:	681b      	ldr	r3, [r3, #0]
 8004a02:	68db      	ldr	r3, [r3, #12]
 8004a04:	681b      	ldr	r3, [r3, #0]
 8004a06:	60fb      	str	r3, [r7, #12]
 8004a08:	e002      	b.n	8004a10 <prvGetNextExpireTime+0x44>
 8004a0a:	f04f 0300 	mov.w	r3, #0
 8004a0e:	60fb      	str	r3, [r7, #12]
 8004a10:	68fb      	ldr	r3, [r7, #12]
 8004a12:	4618      	mov	r0, r3
 8004a14:	f107 0714 	add.w	r7, r7, #20
 8004a18:	46bd      	mov	sp, r7
 8004a1a:	bc80      	pop	{r7}
 8004a1c:	4770      	bx	lr
 8004a1e:	bf00      	nop

08004a20 <prvSampleTimeNow>:
 8004a20:	b580      	push	{r7, lr}
 8004a22:	b084      	sub	sp, #16
 8004a24:	af00      	add	r7, sp, #0
 8004a26:	6078      	str	r0, [r7, #4]
 8004a28:	f7fe f81c 	bl	8002a64 <xTaskGetTickCount>
 8004a2c:	60f8      	str	r0, [r7, #12]
 8004a2e:	f243 63b4 	movw	r3, #14004	; 0x36b4
 8004a32:	f2c2 0301 	movt	r3, #8193	; 0x2001
 8004a36:	681b      	ldr	r3, [r3, #0]
 8004a38:	68fa      	ldr	r2, [r7, #12]
 8004a3a:	429a      	cmp	r2, r3
 8004a3c:	d20c      	bcs.n	8004a58 <prvSampleTimeNow+0x38>
 8004a3e:	f243 63b4 	movw	r3, #14004	; 0x36b4
 8004a42:	f2c2 0301 	movt	r3, #8193	; 0x2001
 8004a46:	681b      	ldr	r3, [r3, #0]
 8004a48:	4618      	mov	r0, r3
 8004a4a:	f000 f8e1 	bl	8004c10 <prvSwitchTimerLists>
 8004a4e:	687b      	ldr	r3, [r7, #4]
 8004a50:	f04f 0201 	mov.w	r2, #1
 8004a54:	601a      	str	r2, [r3, #0]
 8004a56:	e003      	b.n	8004a60 <prvSampleTimeNow+0x40>
 8004a58:	687b      	ldr	r3, [r7, #4]
 8004a5a:	f04f 0200 	mov.w	r2, #0
 8004a5e:	601a      	str	r2, [r3, #0]
 8004a60:	f243 63b4 	movw	r3, #14004	; 0x36b4
 8004a64:	f2c2 0301 	movt	r3, #8193	; 0x2001
 8004a68:	68fa      	ldr	r2, [r7, #12]
 8004a6a:	601a      	str	r2, [r3, #0]
 8004a6c:	68fb      	ldr	r3, [r7, #12]
 8004a6e:	4618      	mov	r0, r3
 8004a70:	f107 0710 	add.w	r7, r7, #16
 8004a74:	46bd      	mov	sp, r7
 8004a76:	bd80      	pop	{r7, pc}

08004a78 <prvInsertTimerInActiveList>:
 8004a78:	b580      	push	{r7, lr}
 8004a7a:	b086      	sub	sp, #24
 8004a7c:	af00      	add	r7, sp, #0
 8004a7e:	60f8      	str	r0, [r7, #12]
 8004a80:	60b9      	str	r1, [r7, #8]
 8004a82:	607a      	str	r2, [r7, #4]
 8004a84:	603b      	str	r3, [r7, #0]
 8004a86:	f04f 0300 	mov.w	r3, #0
 8004a8a:	617b      	str	r3, [r7, #20]
 8004a8c:	68fb      	ldr	r3, [r7, #12]
 8004a8e:	68ba      	ldr	r2, [r7, #8]
 8004a90:	605a      	str	r2, [r3, #4]
 8004a92:	68fb      	ldr	r3, [r7, #12]
 8004a94:	68fa      	ldr	r2, [r7, #12]
 8004a96:	611a      	str	r2, [r3, #16]
 8004a98:	68ba      	ldr	r2, [r7, #8]
 8004a9a:	687b      	ldr	r3, [r7, #4]
 8004a9c:	429a      	cmp	r2, r3
 8004a9e:	d817      	bhi.n	8004ad0 <prvInsertTimerInActiveList+0x58>
 8004aa0:	687a      	ldr	r2, [r7, #4]
 8004aa2:	683b      	ldr	r3, [r7, #0]
 8004aa4:	1ad2      	subs	r2, r2, r3
 8004aa6:	68fb      	ldr	r3, [r7, #12]
 8004aa8:	699b      	ldr	r3, [r3, #24]
 8004aaa:	429a      	cmp	r2, r3
 8004aac:	d303      	bcc.n	8004ab6 <prvInsertTimerInActiveList+0x3e>
 8004aae:	f04f 0301 	mov.w	r3, #1
 8004ab2:	617b      	str	r3, [r7, #20]
 8004ab4:	e024      	b.n	8004b00 <prvInsertTimerInActiveList+0x88>
 8004ab6:	f243 63ac 	movw	r3, #13996	; 0x36ac
 8004aba:	f2c2 0301 	movt	r3, #8193	; 0x2001
 8004abe:	681a      	ldr	r2, [r3, #0]
 8004ac0:	68fb      	ldr	r3, [r7, #12]
 8004ac2:	f103 0304 	add.w	r3, r3, #4
 8004ac6:	4610      	mov	r0, r2
 8004ac8:	4619      	mov	r1, r3
 8004aca:	f7ff fe03 	bl	80046d4 <vListInsert>
 8004ace:	e017      	b.n	8004b00 <prvInsertTimerInActiveList+0x88>
 8004ad0:	687a      	ldr	r2, [r7, #4]
 8004ad2:	683b      	ldr	r3, [r7, #0]
 8004ad4:	429a      	cmp	r2, r3
 8004ad6:	d207      	bcs.n	8004ae8 <prvInsertTimerInActiveList+0x70>
 8004ad8:	68ba      	ldr	r2, [r7, #8]
 8004ada:	683b      	ldr	r3, [r7, #0]
 8004adc:	429a      	cmp	r2, r3
 8004ade:	d303      	bcc.n	8004ae8 <prvInsertTimerInActiveList+0x70>
 8004ae0:	f04f 0301 	mov.w	r3, #1
 8004ae4:	617b      	str	r3, [r7, #20]
 8004ae6:	e00b      	b.n	8004b00 <prvInsertTimerInActiveList+0x88>
 8004ae8:	f243 63a8 	movw	r3, #13992	; 0x36a8
 8004aec:	f2c2 0301 	movt	r3, #8193	; 0x2001
 8004af0:	681a      	ldr	r2, [r3, #0]
 8004af2:	68fb      	ldr	r3, [r7, #12]
 8004af4:	f103 0304 	add.w	r3, r3, #4
 8004af8:	4610      	mov	r0, r2
 8004afa:	4619      	mov	r1, r3
 8004afc:	f7ff fdea 	bl	80046d4 <vListInsert>
 8004b00:	697b      	ldr	r3, [r7, #20]
 8004b02:	4618      	mov	r0, r3
 8004b04:	f107 0718 	add.w	r7, r7, #24
 8004b08:	46bd      	mov	sp, r7
 8004b0a:	bd80      	pop	{r7, pc}

08004b0c <prvProcessReceivedCommands>:
 8004b0c:	b580      	push	{r7, lr}
 8004b0e:	b08a      	sub	sp, #40	; 0x28
 8004b10:	af02      	add	r7, sp, #8
 8004b12:	e066      	b.n	8004be2 <prvProcessReceivedCommands+0xd6>
 8004b14:	693b      	ldr	r3, [r7, #16]
 8004b16:	61fb      	str	r3, [r7, #28]
 8004b18:	69fb      	ldr	r3, [r7, #28]
 8004b1a:	695b      	ldr	r3, [r3, #20]
 8004b1c:	2b00      	cmp	r3, #0
 8004b1e:	d005      	beq.n	8004b2c <prvProcessReceivedCommands+0x20>
 8004b20:	69fb      	ldr	r3, [r7, #28]
 8004b22:	f103 0304 	add.w	r3, r3, #4
 8004b26:	4618      	mov	r0, r3
 8004b28:	f7ff fe0e 	bl	8004748 <uxListRemove>
 8004b2c:	f107 0304 	add.w	r3, r7, #4
 8004b30:	4618      	mov	r0, r3
 8004b32:	f7ff ff75 	bl	8004a20 <prvSampleTimeNow>
 8004b36:	61b8      	str	r0, [r7, #24]
 8004b38:	68bb      	ldr	r3, [r7, #8]
 8004b3a:	2b03      	cmp	r3, #3
 8004b3c:	d84e      	bhi.n	8004bdc <prvProcessReceivedCommands+0xd0>
 8004b3e:	a201      	add	r2, pc, #4	; (adr r2, 8004b44 <prvProcessReceivedCommands+0x38>)
 8004b40:	f852 f023 	ldr.w	pc, [r2, r3, lsl #2]
 8004b44:	08004b55 	.word	0x08004b55
 8004b48:	08004bdd 	.word	0x08004bdd
 8004b4c:	08004bab 	.word	0x08004bab
 8004b50:	08004bd5 	.word	0x08004bd5
 8004b54:	68fa      	ldr	r2, [r7, #12]
 8004b56:	69fb      	ldr	r3, [r7, #28]
 8004b58:	699b      	ldr	r3, [r3, #24]
 8004b5a:	18d2      	adds	r2, r2, r3
 8004b5c:	68fb      	ldr	r3, [r7, #12]
 8004b5e:	69f8      	ldr	r0, [r7, #28]
 8004b60:	4611      	mov	r1, r2
 8004b62:	69ba      	ldr	r2, [r7, #24]
 8004b64:	f7ff ff88 	bl	8004a78 <prvInsertTimerInActiveList>
 8004b68:	4603      	mov	r3, r0
 8004b6a:	2b01      	cmp	r3, #1
 8004b6c:	d138      	bne.n	8004be0 <prvProcessReceivedCommands+0xd4>
 8004b6e:	69fb      	ldr	r3, [r7, #28]
 8004b70:	6a5b      	ldr	r3, [r3, #36]	; 0x24
 8004b72:	69f8      	ldr	r0, [r7, #28]
 8004b74:	4798      	blx	r3
 8004b76:	69fb      	ldr	r3, [r7, #28]
 8004b78:	69db      	ldr	r3, [r3, #28]
 8004b7a:	2b01      	cmp	r3, #1
 8004b7c:	d130      	bne.n	8004be0 <prvProcessReceivedCommands+0xd4>
 8004b7e:	68fa      	ldr	r2, [r7, #12]
 8004b80:	69fb      	ldr	r3, [r7, #28]
 8004b82:	699b      	ldr	r3, [r3, #24]
 8004b84:	18d3      	adds	r3, r2, r3
 8004b86:	f04f 0200 	mov.w	r2, #0
 8004b8a:	9200      	str	r2, [sp, #0]
 8004b8c:	69f8      	ldr	r0, [r7, #28]
 8004b8e:	f04f 0100 	mov.w	r1, #0
 8004b92:	461a      	mov	r2, r3
 8004b94:	f04f 0300 	mov.w	r3, #0
 8004b98:	f7ff fe38 	bl	800480c <xTimerGenericCommand>
 8004b9c:	6178      	str	r0, [r7, #20]
 8004b9e:	697b      	ldr	r3, [r7, #20]
 8004ba0:	2b00      	cmp	r3, #0
 8004ba2:	d11d      	bne.n	8004be0 <prvProcessReceivedCommands+0xd4>
 8004ba4:	f7ff fc9c 	bl	80044e0 <ulPortSetInterruptMask>
 8004ba8:	e7fe      	b.n	8004ba8 <prvProcessReceivedCommands+0x9c>
 8004baa:	68fa      	ldr	r2, [r7, #12]
 8004bac:	69fb      	ldr	r3, [r7, #28]
 8004bae:	619a      	str	r2, [r3, #24]
 8004bb0:	69fb      	ldr	r3, [r7, #28]
 8004bb2:	699b      	ldr	r3, [r3, #24]
 8004bb4:	2b00      	cmp	r3, #0
 8004bb6:	d102      	bne.n	8004bbe <prvProcessReceivedCommands+0xb2>
 8004bb8:	f7ff fc92 	bl	80044e0 <ulPortSetInterruptMask>
 8004bbc:	e7fe      	b.n	8004bbc <prvProcessReceivedCommands+0xb0>
 8004bbe:	69fb      	ldr	r3, [r7, #28]
 8004bc0:	699a      	ldr	r2, [r3, #24]
 8004bc2:	69bb      	ldr	r3, [r7, #24]
 8004bc4:	18d3      	adds	r3, r2, r3
 8004bc6:	69f8      	ldr	r0, [r7, #28]
 8004bc8:	4619      	mov	r1, r3
 8004bca:	69ba      	ldr	r2, [r7, #24]
 8004bcc:	69bb      	ldr	r3, [r7, #24]
 8004bce:	f7ff ff53 	bl	8004a78 <prvInsertTimerInActiveList>
 8004bd2:	e006      	b.n	8004be2 <prvProcessReceivedCommands+0xd6>
 8004bd4:	69f8      	ldr	r0, [r7, #28]
 8004bd6:	f7ff fa17 	bl	8004008 <vPortFree>
 8004bda:	e002      	b.n	8004be2 <prvProcessReceivedCommands+0xd6>
 8004bdc:	bf00      	nop
 8004bde:	e000      	b.n	8004be2 <prvProcessReceivedCommands+0xd6>
 8004be0:	bf00      	nop
 8004be2:	f243 63b0 	movw	r3, #14000	; 0x36b0
 8004be6:	f2c2 0301 	movt	r3, #8193	; 0x2001
 8004bea:	681a      	ldr	r2, [r3, #0]
 8004bec:	f107 0308 	add.w	r3, r7, #8
 8004bf0:	4610      	mov	r0, r2
 8004bf2:	4619      	mov	r1, r3
 8004bf4:	f04f 0200 	mov.w	r2, #0
 8004bf8:	f04f 0300 	mov.w	r3, #0
 8004bfc:	f7fe ff2a 	bl	8003a54 <xQueueGenericReceive>
 8004c00:	4603      	mov	r3, r0
 8004c02:	2b00      	cmp	r3, #0
 8004c04:	d186      	bne.n	8004b14 <prvProcessReceivedCommands+0x8>
 8004c06:	f107 0720 	add.w	r7, r7, #32
 8004c0a:	46bd      	mov	sp, r7
 8004c0c:	bd80      	pop	{r7, pc}
 8004c0e:	bf00      	nop

08004c10 <prvSwitchTimerLists>:
 8004c10:	b580      	push	{r7, lr}
 8004c12:	b08a      	sub	sp, #40	; 0x28
 8004c14:	af02      	add	r7, sp, #8
 8004c16:	6078      	str	r0, [r7, #4]
 8004c18:	e04b      	b.n	8004cb2 <prvSwitchTimerLists+0xa2>
 8004c1a:	f243 63a8 	movw	r3, #13992	; 0x36a8
 8004c1e:	f2c2 0301 	movt	r3, #8193	; 0x2001
 8004c22:	681b      	ldr	r3, [r3, #0]
 8004c24:	68db      	ldr	r3, [r3, #12]
 8004c26:	681b      	ldr	r3, [r3, #0]
 8004c28:	61fb      	str	r3, [r7, #28]
 8004c2a:	f243 63a8 	movw	r3, #13992	; 0x36a8
 8004c2e:	f2c2 0301 	movt	r3, #8193	; 0x2001
 8004c32:	681b      	ldr	r3, [r3, #0]
 8004c34:	68db      	ldr	r3, [r3, #12]
 8004c36:	68db      	ldr	r3, [r3, #12]
 8004c38:	61bb      	str	r3, [r7, #24]
 8004c3a:	69bb      	ldr	r3, [r7, #24]
 8004c3c:	f103 0304 	add.w	r3, r3, #4
 8004c40:	4618      	mov	r0, r3
 8004c42:	f7ff fd81 	bl	8004748 <uxListRemove>
 8004c46:	69bb      	ldr	r3, [r7, #24]
 8004c48:	6a5b      	ldr	r3, [r3, #36]	; 0x24
 8004c4a:	69b8      	ldr	r0, [r7, #24]
 8004c4c:	4798      	blx	r3
 8004c4e:	69bb      	ldr	r3, [r7, #24]
 8004c50:	69db      	ldr	r3, [r3, #28]
 8004c52:	2b01      	cmp	r3, #1
 8004c54:	d12d      	bne.n	8004cb2 <prvSwitchTimerLists+0xa2>
 8004c56:	69bb      	ldr	r3, [r7, #24]
 8004c58:	699a      	ldr	r2, [r3, #24]
 8004c5a:	69fb      	ldr	r3, [r7, #28]
 8004c5c:	18d3      	adds	r3, r2, r3
 8004c5e:	617b      	str	r3, [r7, #20]
 8004c60:	697a      	ldr	r2, [r7, #20]
 8004c62:	69fb      	ldr	r3, [r7, #28]
 8004c64:	429a      	cmp	r2, r3
 8004c66:	d912      	bls.n	8004c8e <prvSwitchTimerLists+0x7e>
 8004c68:	69bb      	ldr	r3, [r7, #24]
 8004c6a:	697a      	ldr	r2, [r7, #20]
 8004c6c:	605a      	str	r2, [r3, #4]
 8004c6e:	69bb      	ldr	r3, [r7, #24]
 8004c70:	69ba      	ldr	r2, [r7, #24]
 8004c72:	611a      	str	r2, [r3, #16]
 8004c74:	f243 63a8 	movw	r3, #13992	; 0x36a8
 8004c78:	f2c2 0301 	movt	r3, #8193	; 0x2001
 8004c7c:	681a      	ldr	r2, [r3, #0]
 8004c7e:	69bb      	ldr	r3, [r7, #24]
 8004c80:	f103 0304 	add.w	r3, r3, #4
 8004c84:	4610      	mov	r0, r2
 8004c86:	4619      	mov	r1, r3
 8004c88:	f7ff fd24 	bl	80046d4 <vListInsert>
 8004c8c:	e011      	b.n	8004cb2 <prvSwitchTimerLists+0xa2>
 8004c8e:	f04f 0300 	mov.w	r3, #0
 8004c92:	9300      	str	r3, [sp, #0]
 8004c94:	69b8      	ldr	r0, [r7, #24]
 8004c96:	f04f 0100 	mov.w	r1, #0
 8004c9a:	69fa      	ldr	r2, [r7, #28]
 8004c9c:	f04f 0300 	mov.w	r3, #0
 8004ca0:	f7ff fdb4 	bl	800480c <xTimerGenericCommand>
 8004ca4:	6138      	str	r0, [r7, #16]
 8004ca6:	693b      	ldr	r3, [r7, #16]
 8004ca8:	2b00      	cmp	r3, #0
 8004caa:	d102      	bne.n	8004cb2 <prvSwitchTimerLists+0xa2>
 8004cac:	f7ff fc18 	bl	80044e0 <ulPortSetInterruptMask>
 8004cb0:	e7fe      	b.n	8004cb0 <prvSwitchTimerLists+0xa0>
 8004cb2:	f243 63a8 	movw	r3, #13992	; 0x36a8
 8004cb6:	f2c2 0301 	movt	r3, #8193	; 0x2001
 8004cba:	681b      	ldr	r3, [r3, #0]
 8004cbc:	681b      	ldr	r3, [r3, #0]
 8004cbe:	2b00      	cmp	r3, #0
 8004cc0:	d1ab      	bne.n	8004c1a <prvSwitchTimerLists+0xa>
 8004cc2:	f243 63a8 	movw	r3, #13992	; 0x36a8
 8004cc6:	f2c2 0301 	movt	r3, #8193	; 0x2001
 8004cca:	681b      	ldr	r3, [r3, #0]
 8004ccc:	60fb      	str	r3, [r7, #12]
 8004cce:	f243 63ac 	movw	r3, #13996	; 0x36ac
 8004cd2:	f2c2 0301 	movt	r3, #8193	; 0x2001
 8004cd6:	681a      	ldr	r2, [r3, #0]
 8004cd8:	f243 63a8 	movw	r3, #13992	; 0x36a8
 8004cdc:	f2c2 0301 	movt	r3, #8193	; 0x2001
 8004ce0:	601a      	str	r2, [r3, #0]
 8004ce2:	f243 63ac 	movw	r3, #13996	; 0x36ac
 8004ce6:	f2c2 0301 	movt	r3, #8193	; 0x2001
 8004cea:	68fa      	ldr	r2, [r7, #12]
 8004cec:	601a      	str	r2, [r3, #0]
 8004cee:	f107 0720 	add.w	r7, r7, #32
 8004cf2:	46bd      	mov	sp, r7
 8004cf4:	bd80      	pop	{r7, pc}
 8004cf6:	bf00      	nop

08004cf8 <prvCheckForValidListAndQueue>:
 8004cf8:	b580      	push	{r7, lr}
 8004cfa:	af00      	add	r7, sp, #0
 8004cfc:	f7ff fbc0 	bl	8004480 <vPortEnterCritical>
 8004d00:	f243 63b0 	movw	r3, #14000	; 0x36b0
 8004d04:	f2c2 0301 	movt	r3, #8193	; 0x2001
 8004d08:	681b      	ldr	r3, [r3, #0]
 8004d0a:	2b00      	cmp	r3, #0
 8004d0c:	d12b      	bne.n	8004d66 <prvCheckForValidListAndQueue+0x6e>
 8004d0e:	f243 6080 	movw	r0, #13952	; 0x3680
 8004d12:	f2c2 0001 	movt	r0, #8193	; 0x2001
 8004d16:	f7ff fc8b 	bl	8004630 <vListInitialise>
 8004d1a:	f243 6094 	movw	r0, #13972	; 0x3694
 8004d1e:	f2c2 0001 	movt	r0, #8193	; 0x2001
 8004d22:	f7ff fc85 	bl	8004630 <vListInitialise>
 8004d26:	f243 63a8 	movw	r3, #13992	; 0x36a8
 8004d2a:	f2c2 0301 	movt	r3, #8193	; 0x2001
 8004d2e:	f243 6280 	movw	r2, #13952	; 0x3680
 8004d32:	f2c2 0201 	movt	r2, #8193	; 0x2001
 8004d36:	601a      	str	r2, [r3, #0]
 8004d38:	f243 63ac 	movw	r3, #13996	; 0x36ac
 8004d3c:	f2c2 0301 	movt	r3, #8193	; 0x2001
 8004d40:	f243 6294 	movw	r2, #13972	; 0x3694
 8004d44:	f2c2 0201 	movt	r2, #8193	; 0x2001
 8004d48:	601a      	str	r2, [r3, #0]
 8004d4a:	f04f 000a 	mov.w	r0, #10
 8004d4e:	f04f 010c 	mov.w	r1, #12
 8004d52:	f04f 0200 	mov.w	r2, #0
 8004d56:	f7fe fcaf 	bl	80036b8 <xQueueGenericCreate>
 8004d5a:	4602      	mov	r2, r0
 8004d5c:	f243 63b0 	movw	r3, #14000	; 0x36b0
 8004d60:	f2c2 0301 	movt	r3, #8193	; 0x2001
 8004d64:	601a      	str	r2, [r3, #0]
 8004d66:	f7ff fba1 	bl	80044ac <vPortExitCritical>
 8004d6a:	bd80      	pop	{r7, pc}

08004d6c <memcmp>:
 8004d6c:	b510      	push	{r4, lr}
 8004d6e:	3901      	subs	r1, #1
 8004d70:	4402      	add	r2, r0
 8004d72:	4290      	cmp	r0, r2
 8004d74:	d007      	beq.n	8004d86 <memcmp+0x1a>
 8004d76:	f810 3b01 	ldrb.w	r3, [r0], #1
 8004d7a:	f811 4f01 	ldrb.w	r4, [r1, #1]!
 8004d7e:	42a3      	cmp	r3, r4
 8004d80:	d0f7      	beq.n	8004d72 <memcmp+0x6>
 8004d82:	1b18      	subs	r0, r3, r4
 8004d84:	bd10      	pop	{r4, pc}
 8004d86:	2000      	movs	r0, #0
 8004d88:	bd10      	pop	{r4, pc}

08004d8a <memcpy>:
 8004d8a:	b510      	push	{r4, lr}
 8004d8c:	1e43      	subs	r3, r0, #1
 8004d8e:	440a      	add	r2, r1
 8004d90:	4291      	cmp	r1, r2
 8004d92:	d004      	beq.n	8004d9e <memcpy+0x14>
 8004d94:	f811 4b01 	ldrb.w	r4, [r1], #1
 8004d98:	f803 4f01 	strb.w	r4, [r3, #1]!
 8004d9c:	e7f8      	b.n	8004d90 <memcpy+0x6>
 8004d9e:	bd10      	pop	{r4, pc}

08004da0 <memset>:
 8004da0:	4402      	add	r2, r0
 8004da2:	4603      	mov	r3, r0
 8004da4:	4293      	cmp	r3, r2
 8004da6:	d002      	beq.n	8004dae <memset+0xe>
 8004da8:	f803 1b01 	strb.w	r1, [r3], #1
 8004dac:	e7fa      	b.n	8004da4 <memset+0x4>
 8004dae:	4770      	bx	lr
 8004db0:	206e6143 	.word	0x206e6143
 8004db4:	706d6554 	.word	0x706d6554
 8004db8:	6574616c 	.word	0x6574616c
 8004dbc:	52414320 	.word	0x52414320
 8004dc0:	4d2d454d 	.word	0x4d2d454d
 8004dc4:	00000034 	.word	0x00000034
 8004dc8:	6c6c6548 	.word	0x6c6c6548
 8004dcc:	726f576f 	.word	0x726f576f
 8004dd0:	315f646c 	.word	0x315f646c
 8004dd4:	00000000 	.word	0x00000000
 8004dd8:	6c6c6548 	.word	0x6c6c6548
 8004ddc:	726f576f 	.word	0x726f576f
 8004de0:	325f646c 	.word	0x325f646c
 8004de4:	00000000 	.word	0x00000000
 8004de8:	6c6c6548 	.word	0x6c6c6548
 8004dec:	726f576f 	.word	0x726f576f
 8004df0:	335f646c 	.word	0x335f646c
 8004df4:	00000000 	.word	0x00000000
 8004df8:	20414c42 	.word	0x20414c42
 8004dfc:	00414c42 	.word	0x00414c42
 8004e00:	253d4449 	.word	0x253d4449
 8004e04:	442c6878 	.word	0x442c6878
 8004e08:	253d434c 	.word	0x253d434c
 8004e0c:	61442c64 	.word	0x61442c64
 8004e10:	253d6174 	.word	0x253d6174
 8004e14:	252c6878 	.word	0x252c6878
 8004e18:	252c6878 	.word	0x252c6878
 8004e1c:	252c6878 	.word	0x252c6878
 8004e20:	252c6878 	.word	0x252c6878
 8004e24:	252c6878 	.word	0x252c6878
 8004e28:	252c6878 	.word	0x252c6878
 8004e2c:	252c6878 	.word	0x252c6878
 8004e30:	00006878 	.word	0x00006878
 8004e34:	2077654e 	.word	0x2077654e
 8004e38:	206e6143 	.word	0x206e6143
 8004e3c:	7373654d 	.word	0x7373654d
 8004e40:	20656761 	.word	0x20656761
 8004e44:	65636572 	.word	0x65636572
 8004e48:	64657669 	.word	0x64657669
 8004e4c:	00000000 	.word	0x00000000
 8004e50:	40021400 	.word	0x40021400
 8004e54:	0c020001 	.word	0x0c020001
 8004e58:	40021400 	.word	0x40021400
 8004e5c:	0c020002 	.word	0x0c020002
 8004e60:	40021400 	.word	0x40021400
 8004e64:	0c020004 	.word	0x0c020004
 8004e68:	40021400 	.word	0x40021400
 8004e6c:	0c020008 	.word	0x0c020008
 8004e70:	40021400 	.word	0x40021400
 8004e74:	0c020010 	.word	0x0c020010
 8004e78:	40021400 	.word	0x40021400
 8004e7c:	0c020020 	.word	0x0c020020
 8004e80:	40021400 	.word	0x40021400
 8004e84:	0c021000 	.word	0x0c021000
 8004e88:	40021400 	.word	0x40021400
 8004e8c:	0c022000 	.word	0x0c022000
 8004e90:	40021400 	.word	0x40021400
 8004e94:	0c024000 	.word	0x0c024000
 8004e98:	40021400 	.word	0x40021400
 8004e9c:	0c028000 	.word	0x0c028000
 8004ea0:	40021800 	.word	0x40021800
 8004ea4:	0c020001 	.word	0x0c020001
 8004ea8:	40021800 	.word	0x40021800
 8004eac:	0c020002 	.word	0x0c020002
 8004eb0:	40021800 	.word	0x40021800
 8004eb4:	0c020004 	.word	0x0c020004
 8004eb8:	40021800 	.word	0x40021800
 8004ebc:	0c020008 	.word	0x0c020008
 8004ec0:	40021800 	.word	0x40021800
 8004ec4:	0c020010 	.word	0x0c020010
 8004ec8:	40021800 	.word	0x40021800
 8004ecc:	0c020020 	.word	0x0c020020
 8004ed0:	40020c00 	.word	0x40020c00
 8004ed4:	0c020800 	.word	0x0c020800
 8004ed8:	40020c00 	.word	0x40020c00
 8004edc:	0c021000 	.word	0x0c021000
 8004ee0:	40020c00 	.word	0x40020c00
 8004ee4:	0c022000 	.word	0x0c022000
 8004ee8:	40021000 	.word	0x40021000
 8004eec:	0c020008 	.word	0x0c020008
 8004ef0:	40021000 	.word	0x40021000
 8004ef4:	0c020010 	.word	0x0c020010
 8004ef8:	40021000 	.word	0x40021000
 8004efc:	0c020020 	.word	0x0c020020
 8004f00:	40021000 	.word	0x40021000
 8004f04:	0c020040 	.word	0x0c020040
 8004f08:	40021000 	.word	0x40021000
 8004f0c:	0c020004 	.word	0x0c020004
 8004f10:	40021800 	.word	0x40021800
 8004f14:	0c022000 	.word	0x0c022000
 8004f18:	40021800 	.word	0x40021800
 8004f1c:	0c024000 	.word	0x0c024000
 8004f20:	40020c00 	.word	0x40020c00
 8004f24:	0c024000 	.word	0x0c024000
 8004f28:	40020c00 	.word	0x40020c00
 8004f2c:	0c028000 	.word	0x0c028000
 8004f30:	40020c00 	.word	0x40020c00
 8004f34:	0c020001 	.word	0x0c020001
 8004f38:	40020c00 	.word	0x40020c00
 8004f3c:	0c020002 	.word	0x0c020002
 8004f40:	40021000 	.word	0x40021000
 8004f44:	0c020080 	.word	0x0c020080
 8004f48:	40021000 	.word	0x40021000
 8004f4c:	0c020100 	.word	0x0c020100
 8004f50:	40021000 	.word	0x40021000
 8004f54:	0c020200 	.word	0x0c020200
 8004f58:	40021000 	.word	0x40021000
 8004f5c:	0c020400 	.word	0x0c020400
 8004f60:	40021000 	.word	0x40021000
 8004f64:	0c020800 	.word	0x0c020800
 8004f68:	40021000 	.word	0x40021000
 8004f6c:	0c021000 	.word	0x0c021000
 8004f70:	40021000 	.word	0x40021000
 8004f74:	0c022000 	.word	0x0c022000
 8004f78:	40021000 	.word	0x40021000
 8004f7c:	0c024000 	.word	0x0c024000
 8004f80:	40021000 	.word	0x40021000
 8004f84:	0c028000 	.word	0x0c028000
 8004f88:	40020c00 	.word	0x40020c00
 8004f8c:	0c020100 	.word	0x0c020100
 8004f90:	40020c00 	.word	0x40020c00
 8004f94:	0c020200 	.word	0x0c020200
 8004f98:	40020c00 	.word	0x40020c00
 8004f9c:	0c020400 	.word	0x0c020400
 8004fa0:	40020c00 	.word	0x40020c00
 8004fa4:	0c020080 	.word	0x0c020080
 8004fa8:	40021800 	.word	0x40021800
 8004fac:	0c020200 	.word	0x0c020200
 8004fb0:	40021800 	.word	0x40021800
 8004fb4:	0c020400 	.word	0x0c020400
 8004fb8:	40021800 	.word	0x40021800
 8004fbc:	0c021000 	.word	0x0c021000
 8004fc0:	40020400 	.word	0x40020400
 8004fc4:	0c020080 	.word	0x0c020080
 8004fc8:	40020c00 	.word	0x40020c00
 8004fcc:	0c020008 	.word	0x0c020008
 8004fd0:	40020c00 	.word	0x40020c00
 8004fd4:	0c020010 	.word	0x0c020010
 8004fd8:	40020c00 	.word	0x40020c00
 8004fdc:	0c020020 	.word	0x0c020020
 8004fe0:	40020c00 	.word	0x40020c00
 8004fe4:	0c020040 	.word	0x0c020040
 8004fe8:	40021000 	.word	0x40021000
 8004fec:	0c020001 	.word	0x0c020001
 8004ff0:	40021000 	.word	0x40021000
 8004ff4:	0c020002 	.word	0x0c020002
 8004ff8:	454c4449 	.word	0x454c4449
 8004ffc:	00000000 	.word	0x00000000
 8005000:	20726d54 	.word	0x20726d54
 8005004:	00637653 	.word	0x00637653
 8005008:	00000043 	.word	0x00000043

0800500c <ucExpectedStackBytes.8730>:
 800500c:	a5a5a5a5 a5a5a5a5 a5a5a5a5 a5a5a5a5     ................
 800501c:	a5a5a5a5                                ....

08005020 <heapSTRUCT_SIZE>:
 8005020:	00000008                                ....

08005024 <xTotalHeapSize>:
 8005024:	00012bf8                                .+..

08005028 <pcInterruptPriorityRegisters>:
 8005028:	e000e3f0                                ....

0800502c <_init>:
 800502c:	b5f8      	push	{r3, r4, r5, r6, r7, lr}
 800502e:	bf00      	nop
 8005030:	bcf8      	pop	{r3, r4, r5, r6, r7}
 8005032:	bc08      	pop	{r3}
 8005034:	469e      	mov	lr, r3
 8005036:	4770      	bx	lr

08005038 <_fini>:
 8005038:	b5f8      	push	{r3, r4, r5, r6, r7, lr}
 800503a:	bf00      	nop
 800503c:	bcf8      	pop	{r3, r4, r5, r6, r7}
 800503e:	bc08      	pop	{r3}
 8005040:	469e      	mov	lr, r3
 8005042:	4770      	bx	lr
